
mcf_s:     file format elf64-x86-64


Disassembly of section .init:

00000000004009e8 <_init>:
  4009e8:	48 83 ec 08          	sub    $0x8,%rsp
  4009ec:	48 8b 05 05 66 20 00 	mov    0x206605(%rip),%rax        # 606ff8 <__gmon_start__>
  4009f3:	48 85 c0             	test   %rax,%rax
  4009f6:	74 05                	je     4009fd <_init+0x15>
  4009f8:	e8 d3 00 00 00       	callq  400ad0 <__gmon_start__@plt>
  4009fd:	48 83 c4 08          	add    $0x8,%rsp
  400a01:	c3                   	retq   

Disassembly of section .plt:

0000000000400a10 <.plt>:
  400a10:	ff 35 f2 65 20 00    	pushq  0x2065f2(%rip)        # 607008 <_GLOBAL_OFFSET_TABLE_+0x8>
  400a16:	ff 25 f4 65 20 00    	jmpq   *0x2065f4(%rip)        # 607010 <_GLOBAL_OFFSET_TABLE_+0x10>
  400a1c:	0f 1f 40 00          	nopl   0x0(%rax)

0000000000400a20 <realloc@plt>:
  400a20:	ff 25 f2 65 20 00    	jmpq   *0x2065f2(%rip)        # 607018 <realloc>
  400a26:	68 00 00 00 00       	pushq  $0x0
  400a2b:	e9 e0 ff ff ff       	jmpq   400a10 <.plt>

0000000000400a30 <putchar@plt>:
  400a30:	ff 25 ea 65 20 00    	jmpq   *0x2065ea(%rip)        # 607020 <putchar@GLIBC_2.2.5>
  400a36:	68 01 00 00 00       	pushq  $0x1
  400a3b:	e9 d0 ff ff ff       	jmpq   400a10 <.plt>

0000000000400a40 <strcpy@plt>:
  400a40:	ff 25 e2 65 20 00    	jmpq   *0x2065e2(%rip)        # 607028 <strcpy@GLIBC_2.2.5>
  400a46:	68 02 00 00 00       	pushq  $0x2
  400a4b:	e9 c0 ff ff ff       	jmpq   400a10 <.plt>

0000000000400a50 <puts@plt>:
  400a50:	ff 25 da 65 20 00    	jmpq   *0x2065da(%rip)        # 607030 <puts@GLIBC_2.2.5>
  400a56:	68 03 00 00 00       	pushq  $0x3
  400a5b:	e9 b0 ff ff ff       	jmpq   400a10 <.plt>

0000000000400a60 <calloc@plt>:
  400a60:	ff 25 d2 65 20 00    	jmpq   *0x2065d2(%rip)        # 607038 <calloc>
  400a66:	68 04 00 00 00       	pushq  $0x4
  400a6b:	e9 a0 ff ff ff       	jmpq   400a10 <.plt>

0000000000400a70 <free@plt>:
  400a70:	ff 25 ca 65 20 00    	jmpq   *0x2065ca(%rip)        # 607040 <free>
  400a76:	68 05 00 00 00       	pushq  $0x5
  400a7b:	e9 90 ff ff ff       	jmpq   400a10 <.plt>

0000000000400a80 <fclose@plt>:
  400a80:	ff 25 c2 65 20 00    	jmpq   *0x2065c2(%rip)        # 607048 <fclose@GLIBC_2.2.5>
  400a86:	68 06 00 00 00       	pushq  $0x6
  400a8b:	e9 80 ff ff ff       	jmpq   400a10 <.plt>

0000000000400a90 <printf@plt>:
  400a90:	ff 25 ba 65 20 00    	jmpq   *0x2065ba(%rip)        # 607050 <printf@GLIBC_2.2.5>
  400a96:	68 07 00 00 00       	pushq  $0x7
  400a9b:	e9 70 ff ff ff       	jmpq   400a10 <.plt>

0000000000400aa0 <__libc_start_main@plt>:
  400aa0:	ff 25 b2 65 20 00    	jmpq   *0x2065b2(%rip)        # 607058 <__libc_start_main@GLIBC_2.2.5>
  400aa6:	68 08 00 00 00       	pushq  $0x8
  400aab:	e9 60 ff ff ff       	jmpq   400a10 <.plt>

0000000000400ab0 <fgets@plt>:
  400ab0:	ff 25 aa 65 20 00    	jmpq   *0x2065aa(%rip)        # 607060 <fgets@GLIBC_2.2.5>
  400ab6:	68 09 00 00 00       	pushq  $0x9
  400abb:	e9 50 ff ff ff       	jmpq   400a10 <.plt>

0000000000400ac0 <fprintf@plt>:
  400ac0:	ff 25 a2 65 20 00    	jmpq   *0x2065a2(%rip)        # 607068 <fprintf@GLIBC_2.2.5>
  400ac6:	68 0a 00 00 00       	pushq  $0xa
  400acb:	e9 40 ff ff ff       	jmpq   400a10 <.plt>

0000000000400ad0 <__gmon_start__@plt>:
  400ad0:	ff 25 9a 65 20 00    	jmpq   *0x20659a(%rip)        # 607070 <__gmon_start__>
  400ad6:	68 0b 00 00 00       	pushq  $0xb
  400adb:	e9 30 ff ff ff       	jmpq   400a10 <.plt>

0000000000400ae0 <strtol@plt>:
  400ae0:	ff 25 92 65 20 00    	jmpq   *0x206592(%rip)        # 607078 <strtol@GLIBC_2.2.5>
  400ae6:	68 0c 00 00 00       	pushq  $0xc
  400aeb:	e9 20 ff ff ff       	jmpq   400a10 <.plt>

0000000000400af0 <fflush@plt>:
  400af0:	ff 25 8a 65 20 00    	jmpq   *0x20658a(%rip)        # 607080 <fflush@GLIBC_2.2.5>
  400af6:	68 0d 00 00 00       	pushq  $0xd
  400afb:	e9 10 ff ff ff       	jmpq   400a10 <.plt>

0000000000400b00 <__isoc99_sscanf@plt>:
  400b00:	ff 25 82 65 20 00    	jmpq   *0x206582(%rip)        # 607088 <__isoc99_sscanf@GLIBC_2.7>
  400b06:	68 0e 00 00 00       	pushq  $0xe
  400b0b:	e9 00 ff ff ff       	jmpq   400a10 <.plt>

0000000000400b10 <fopen@plt>:
  400b10:	ff 25 7a 65 20 00    	jmpq   *0x20657a(%rip)        # 607090 <fopen@GLIBC_2.2.5>
  400b16:	68 0f 00 00 00       	pushq  $0xf
  400b1b:	e9 f0 fe ff ff       	jmpq   400a10 <.plt>

0000000000400b20 <sprintf@plt>:
  400b20:	ff 25 72 65 20 00    	jmpq   *0x206572(%rip)        # 607098 <sprintf@GLIBC_2.2.5>
  400b26:	68 10 00 00 00       	pushq  $0x10
  400b2b:	e9 e0 fe ff ff       	jmpq   400a10 <.plt>

0000000000400b30 <exit@plt>:
  400b30:	ff 25 6a 65 20 00    	jmpq   *0x20656a(%rip)        # 6070a0 <exit@GLIBC_2.2.5>
  400b36:	68 11 00 00 00       	pushq  $0x11
  400b3b:	e9 d0 fe ff ff       	jmpq   400a10 <.plt>

0000000000400b40 <fwrite@plt>:
  400b40:	ff 25 62 65 20 00    	jmpq   *0x206562(%rip)        # 6070a8 <fwrite@GLIBC_2.2.5>
  400b46:	68 12 00 00 00       	pushq  $0x12
  400b4b:	e9 c0 fe ff ff       	jmpq   400a10 <.plt>

0000000000400b50 <malloc@plt>:
  400b50:	ff 25 5a 65 20 00    	jmpq   *0x20655a(%rip)        # 6070b0 <malloc>
  400b56:	68 13 00 00 00       	pushq  $0x13
  400b5b:	e9 b0 fe ff ff       	jmpq   400a10 <.plt>

Disassembly of section .text:

0000000000400b60 <main>:
  400b60:	83 ff 01             	cmp    $0x1,%edi
  400b63:	0f 8e 11 21 00 00    	jle    402c7a <main+0x211a>
  400b69:	41 57                	push   %r15
  400b6b:	41 56                	push   %r14
  400b6d:	41 55                	push   %r13
  400b6f:	41 54                	push   %r12
  400b71:	55                   	push   %rbp
  400b72:	53                   	push   %rbx
  400b73:	89 fb                	mov    %edi,%ebx
  400b75:	bf 50 62 40 00       	mov    $0x406250,%edi
  400b7a:	48 81 ec d8 01 00 00 	sub    $0x1d8,%rsp
  400b81:	48 89 f5             	mov    %rsi,%rbp
  400b84:	e8 c7 fe ff ff       	callq  400a50 <puts@plt>
  400b89:	bf 08 60 40 00       	mov    $0x406008,%edi
  400b8e:	e8 bd fe ff ff       	callq  400a50 <puts@plt>
  400b93:	bf 40 60 40 00       	mov    $0x406040,%edi
  400b98:	e8 b3 fe ff ff       	callq  400a50 <puts@plt>
  400b9d:	bf 70 60 40 00       	mov    $0x406070,%edi
  400ba2:	e8 a9 fe ff ff       	callq  400a50 <puts@plt>
  400ba7:	bf 98 60 40 00       	mov    $0x406098,%edi
  400bac:	e8 9f fe ff ff       	callq  400a50 <puts@plt>
  400bb1:	bf 0a 00 00 00       	mov    $0xa,%edi
  400bb6:	e8 75 fe ff ff       	callq  400a30 <putchar@plt>
  400bbb:	ba 20 71 60 00       	mov    $0x607120,%edx
  400bc0:	31 c0                	xor    %eax,%eax
  400bc2:	b9 51 00 00 00       	mov    $0x51,%ecx
  400bc7:	48 89 d7             	mov    %rdx,%rdi
  400bca:	f3 48 ab             	rep stos %rax,%es:(%rdi)
  400bcd:	48 c7 05 58 67 20 00 	movq   $0x989680,0x206758(%rip)        # 607330 <net+0x210>
  400bd4:	80 96 98 00 
  400bd8:	48 89 d7             	mov    %rdx,%rdi
  400bdb:	48 8b 75 08          	mov    0x8(%rbp),%rsi
  400bdf:	e8 5c fe ff ff       	callq  400a40 <strcpy@plt>
  400be4:	83 fb 03             	cmp    $0x3,%ebx
  400be7:	0f 84 a3 05 00 00    	je     401190 <main+0x630>
  400bed:	48 b8 6d 63 66 2e 6f 	movabs $0x74756f2e66636d,%rax
  400bf4:	75 74 00 
  400bf7:	48 89 84 24 b0 00 00 	mov    %rax,0xb0(%rsp)
  400bfe:	00 
  400bff:	be 76 62 40 00       	mov    $0x406276,%esi
  400c04:	bf 20 71 60 00       	mov    $0x607120,%edi
  400c09:	e8 02 ff ff ff       	callq  400b10 <fopen@plt>
  400c0e:	48 89 c5             	mov    %rax,%rbp
  400c11:	48 85 c0             	test   %rax,%rax
  400c14:	0f 84 49 20 00 00    	je     402c63 <main+0x2103>
  400c1a:	48 89 c2             	mov    %rax,%rdx
  400c1d:	be c8 00 00 00       	mov    $0xc8,%esi
  400c22:	48 8d bc 24 00 01 00 	lea    0x100(%rsp),%rdi
  400c29:	00 
  400c2a:	e8 81 fe ff ff       	callq  400ab0 <fgets@plt>
  400c2f:	31 c0                	xor    %eax,%eax
  400c31:	48 8d 8c 24 a0 00 00 	lea    0xa0(%rsp),%rcx
  400c38:	00 
  400c39:	48 8d 94 24 98 00 00 	lea    0x98(%rsp),%rdx
  400c40:	00 
  400c41:	be 9a 62 40 00       	mov    $0x40629a,%esi
  400c46:	48 8d bc 24 00 01 00 	lea    0x100(%rsp),%rdi
  400c4d:	00 
  400c4e:	e8 ad fe ff ff       	callq  400b00 <__isoc99_sscanf@plt>
  400c53:	83 f8 02             	cmp    $0x2,%eax
  400c56:	0f 85 07 20 00 00    	jne    402c63 <main+0x2103>
  400c5c:	48 8b 8c 24 98 00 00 	mov    0x98(%rsp),%rcx
  400c63:	00 
  400c64:	48 8b 84 24 a0 00 00 	mov    0xa0(%rsp),%rax
  400c6b:	00 
  400c6c:	48 be cf f7 53 e3 a5 	movabs $0x20c49ba5e353f7cf,%rsi
  400c73:	9b c4 20 
  400c76:	48 c7 05 1f 67 20 00 	movq   $0xfa0,0x20671f(%rip)        # 6073a0 <net+0x280>
  400c7d:	a0 0f 00 00 
  400c81:	4c 8d 3c 09          	lea    (%rcx,%rcx,1),%r15
  400c85:	4d 8d 34 0f          	lea    (%r15,%rcx,1),%r14
  400c89:	4d 8d 67 01          	lea    0x1(%r15),%r12
  400c8d:	49 01 c6             	add    %rax,%r14
  400c90:	c4 c1 f9 6e f4       	vmovq  %r12,%xmm6
  400c95:	c4 e3 c9 22 c1 01    	vpinsrq $0x1,%rcx,%xmm6,%xmm0
  400c9b:	49 8d 7e ff          	lea    -0x1(%r14),%rdi
  400c9f:	c5 f8 29 05 09 66 20 	vmovaps %xmm0,0x206609(%rip)        # 6072b0 <net+0x190>
  400ca6:	00 
  400ca7:	c4 c1 f9 6e fe       	vmovq  %r14,%xmm7
  400cac:	c4 e3 c1 22 c0 01    	vpinsrq $0x1,%rax,%xmm7,%xmm0
  400cb2:	48 89 f8             	mov    %rdi,%rax
  400cb5:	48 c1 ff 3f          	sar    $0x3f,%rdi
  400cb9:	4c 89 f3             	mov    %r14,%rbx
  400cbc:	c5 f8 11 05 04 66 20 	vmovups %xmm0,0x206604(%rip)        # 6072c8 <net+0x1a8>
  400cc3:	00 
  400cc4:	48 f7 ee             	imul   %rsi
  400cc7:	4c 89 f0             	mov    %r14,%rax
  400cca:	48 c1 fa 09          	sar    $0x9,%rdx
  400cce:	48 29 fa             	sub    %rdi,%rdx
  400cd1:	48 8d 7a 01          	lea    0x1(%rdx),%rdi
  400cd5:	48 f7 ee             	imul   %rsi
  400cd8:	4c 89 f0             	mov    %r14,%rax
  400cdb:	48 c1 f8 3f          	sar    $0x3f,%rax
  400cdf:	48 89 3d aa 66 20 00 	mov    %rdi,0x2066aa(%rip)        # 607390 <net+0x270>
  400ce6:	48 c1 fa 09          	sar    $0x9,%rdx
  400cea:	48 29 c2             	sub    %rax,%rdx
  400ced:	48 89 f8             	mov    %rdi,%rax
  400cf0:	48 69 d2 a0 0f 00 00 	imul   $0xfa0,%rdx,%rdx
  400cf7:	48 29 d3             	sub    %rdx,%rbx
  400cfa:	0f 85 2e 04 00 00    	jne    40112e <main+0x5ce>
  400d00:	48 89 05 91 66 20 00 	mov    %rax,0x206691(%rip)        # 607398 <net+0x278>
  400d07:	48 85 c0             	test   %rax,%rax
  400d0a:	79 32                	jns    400d3e <main+0x1de>
  400d0c:	ba 9f 0f 00 00       	mov    $0xf9f,%edx
  400d11:	0f 1f 44 00 00       	nopl   0x0(%rax,%rax,1)
  400d16:	66 2e 0f 1f 84 00 00 	nopw   %cs:0x0(%rax,%rax,1)
  400d1d:	00 00 00 
  400d20:	48 89 d6             	mov    %rdx,%rsi
  400d23:	48 ff ca             	dec    %rdx
  400d26:	48 01 f8             	add    %rdi,%rax
  400d29:	78 f5                	js     400d20 <main+0x1c0>
  400d2b:	c4 e1 f9 6e d0       	vmovq  %rax,%xmm2
  400d30:	c4 e3 e9 22 c6 01    	vpinsrq $0x1,%rsi,%xmm2,%xmm0
  400d36:	c5 f8 11 05 5a 66 20 	vmovups %xmm0,0x20665a(%rip)        # 607398 <net+0x278>
  400d3d:	00 
  400d3e:	48 81 f9 98 3a 00 00 	cmp    $0x3a98,%rcx
  400d45:	0f 8e f0 03 00 00    	jle    40113b <main+0x5db>
  400d4b:	c5 fb 10 15 4d 56 00 	vmovsd 0x564d(%rip),%xmm2        # 4063a0 <_IO_stdin_used+0x3c0>
  400d52:	00 
  400d53:	c5 f0 57 c9          	vxorps %xmm1,%xmm1,%xmm1
  400d57:	c5 f8 57 c0          	vxorps %xmm0,%xmm0,%xmm0
  400d5b:	49 8d 96 3f 4b 4c 00 	lea    0x4c4b3f(%r14),%rdx
  400d62:	c4 c1 f3 2a ce       	vcvtsi2sd %r14,%xmm1,%xmm1
  400d67:	c5 f3 59 ca          	vmulsd %xmm2,%xmm1,%xmm1
  400d6b:	c4 e1 fb 2c c1       	vcvttsd2si %xmm1,%rax
  400d70:	c4 e1 fb 2a c0       	vcvtsi2sd %rax,%xmm0,%xmm0
  400d75:	c5 fb 59 c2          	vmulsd %xmm2,%xmm0,%xmm0
  400d79:	c4 e1 fb 2c c0       	vcvttsd2si %xmm0,%rax
  400d7e:	48 39 c2             	cmp    %rax,%rdx
  400d81:	7c 07                	jl     400d8a <main+0x22a>
  400d83:	49 8d 86 40 4b 4c 00 	lea    0x4c4b40(%r14),%rax
  400d8a:	48 89 05 2f 65 20 00 	mov    %rax,0x20652f(%rip)        # 6072c0 <net+0x1a0>
  400d91:	48 c7 05 4c 65 20 00 	movq   $0x1b8faa0,0x20654c(%rip)        # 6072e8 <net+0x1c8>
  400d98:	a0 fa b8 01 
  400d9c:	48 8d 51 01          	lea    0x1(%rcx),%rdx
  400da0:	be 68 00 00 00       	mov    $0x68,%esi
  400da5:	48 89 4c 24 18       	mov    %rcx,0x18(%rsp)
  400daa:	48 8d 3c 12          	lea    (%rdx,%rdx,1),%rdi
  400dae:	48 89 54 24 10       	mov    %rdx,0x10(%rsp)
  400db3:	e8 a8 fc ff ff       	callq  400a60 <calloc@plt>
  400db8:	be 48 00 00 00       	mov    $0x48,%esi
  400dbd:	4c 89 e7             	mov    %r12,%rdi
  400dc0:	49 89 c5             	mov    %rax,%r13
  400dc3:	48 89 05 7e 65 20 00 	mov    %rax,0x20657e(%rip)        # 607348 <net+0x228>
  400dca:	e8 91 fc ff ff       	callq  400a60 <calloc@plt>
  400dcf:	48 8b 1d ea 64 20 00 	mov    0x2064ea(%rip),%rbx        # 6072c0 <net+0x1a0>
  400dd6:	be 48 00 00 00       	mov    $0x48,%esi
  400ddb:	48 89 05 8e 65 20 00 	mov    %rax,0x20658e(%rip)        # 607370 <net+0x250>
  400de2:	48 89 44 24 08       	mov    %rax,0x8(%rsp)
  400de7:	48 89 df             	mov    %rbx,%rdi
  400dea:	e8 71 fc ff ff       	callq  400a60 <calloc@plt>
  400def:	48 89 df             	mov    %rbx,%rdi
  400df2:	be 48 00 00 00       	mov    $0x48,%esi
  400df7:	48 89 05 6a 65 20 00 	mov    %rax,0x20656a(%rip)        # 607368 <net+0x248>
  400dfe:	48 89 04 24          	mov    %rax,(%rsp)
  400e02:	e8 59 fc ff ff       	callq  400a60 <calloc@plt>
  400e07:	4c 8b 0c 24          	mov    (%rsp),%r9
  400e0b:	48 89 c3             	mov    %rax,%rbx
  400e0e:	4d 85 ed             	test   %r13,%r13
  400e11:	48 89 05 40 65 20 00 	mov    %rax,0x206540(%rip)        # 607358 <net+0x238>
  400e18:	4c 8b 44 24 08       	mov    0x8(%rsp),%r8
  400e1d:	0f 94 c0             	sete   %al
  400e20:	48 85 db             	test   %rbx,%rbx
  400e23:	40 0f 94 c6          	sete   %sil
  400e27:	48 8b 54 24 10       	mov    0x10(%rsp),%rdx
  400e2c:	48 8b 4c 24 18       	mov    0x18(%rsp),%rcx
  400e31:	09 f0                	or     %esi,%eax
  400e33:	4d 85 c9             	test   %r9,%r9
  400e36:	40 0f 94 c6          	sete   %sil
  400e3a:	4d 85 c0             	test   %r8,%r8
  400e3d:	40 0f 94 c7          	sete   %dil
  400e41:	09 fe                	or     %edi,%esi
  400e43:	09 f0                	or     %esi,%eax
  400e45:	a8 01                	test   $0x1,%al
  400e47:	88 44 24 77          	mov    %al,0x77(%rsp)
  400e4b:	0f 85 03 1e 00 00    	jne    402c54 <main+0x20f4>
  400e51:	49 83 c7 02          	add    $0x2,%r15
  400e55:	4b 8d 04 f6          	lea    (%r14,%r14,8),%rax
  400e59:	4d 6b ff 68          	imul   $0x68,%r15,%r15
  400e5d:	48 8d 04 c3          	lea    (%rbx,%rax,8),%rax
  400e61:	48 89 05 f8 64 20 00 	mov    %rax,0x2064f8(%rip)        # 607360 <net+0x240>
  400e68:	4b 8d 04 e4          	lea    (%r12,%r12,8),%rax
  400e6c:	49 8d 04 c0          	lea    (%r8,%rax,8),%rax
  400e70:	4d 01 ef             	add    %r13,%r15
  400e73:	48 89 05 fe 64 20 00 	mov    %rax,0x2064fe(%rip)        # 607378 <net+0x258>
  400e7a:	4c 89 3d cf 64 20 00 	mov    %r15,0x2064cf(%rip)        # 607350 <net+0x230>
  400e81:	48 85 c9             	test   %rcx,%rcx
  400e84:	0f 8e bc 1d 00 00    	jle    402c46 <main+0x20e6>
  400e8a:	4d 8d 75 68          	lea    0x68(%r13),%r14
  400e8e:	45 31 e4             	xor    %r12d,%r12d
  400e91:	41 bf 01 00 00 00    	mov    $0x1,%r15d
  400e97:	e9 85 01 00 00       	jmpq   401021 <main+0x4c1>
  400e9c:	0f 1f 40 00          	nopl   0x0(%rax)
  400ea0:	4c 8b 05 f9 64 20 00 	mov    0x2064f9(%rip),%r8        # 6073a0 <net+0x280>
  400ea7:	48 29 fa             	sub    %rdi,%rdx
  400eaa:	4d 8d 48 ff          	lea    -0x1(%r8),%r9
  400eae:	49 0f af f8          	imul   %r8,%rdi
  400eb2:	49 0f af d1          	imul   %r9,%rdx
  400eb6:	48 01 fa             	add    %rdi,%rdx
  400eb9:	48 01 c2             	add    %rax,%rdx
  400ebc:	48 8d 04 d2          	lea    (%rdx,%rdx,8),%rax
  400ec0:	8d 51 01             	lea    0x1(%rcx),%edx
  400ec3:	48 8d 04 c6          	lea    (%rsi,%rax,8),%rax
  400ec7:	89 10                	mov    %edx,(%rax)
  400ec9:	48 8b 15 e8 63 20 00 	mov    0x2063e8(%rip),%rdx        # 6072b8 <net+0x198>
  400ed0:	4c 01 fa             	add    %r15,%rdx
  400ed3:	48 6b d2 68          	imul   $0x68,%rdx,%rdx
  400ed7:	4c 01 ea             	add    %r13,%rdx
  400eda:	48 89 50 10          	mov    %rdx,0x10(%rax)
  400ede:	48 6b 35 ca 63 20 00 	imul   $0x68,0x2063ca(%rip),%rsi        # 6072b0 <net+0x190>
  400ee5:	68 
  400ee6:	48 c7 40 08 0f 00 00 	movq   $0xf,0x8(%rax)
  400eed:	00 
  400eee:	48 c7 40 40 0f 00 00 	movq   $0xf,0x40(%rax)
  400ef5:	00 
  400ef6:	4c 01 ee             	add    %r13,%rsi
  400ef9:	48 89 70 18          	mov    %rsi,0x18(%rax)
  400efd:	48 8b 72 38          	mov    0x38(%rdx),%rsi
  400f01:	48 89 70 28          	mov    %rsi,0x28(%rax)
  400f05:	48 89 42 38          	mov    %rax,0x38(%rdx)
  400f09:	48 8b 50 18          	mov    0x18(%rax),%rdx
  400f0d:	48 8b 72 40          	mov    0x40(%rdx),%rsi
  400f11:	48 89 70 30          	mov    %rsi,0x30(%rax)
  400f15:	48 89 42 40          	mov    %rax,0x40(%rdx)
  400f19:	49 8d 44 24 02       	lea    0x2(%r12),%rax
  400f1e:	48 8b 3d 73 64 20 00 	mov    0x206473(%rip),%rdi        # 607398 <net+0x278>
  400f25:	48 99                	cqto   
  400f27:	48 f7 3d 62 64 20 00 	idivq  0x206462(%rip)        # 607390 <net+0x270>
  400f2e:	48 8b 35 23 64 20 00 	mov    0x206423(%rip),%rsi        # 607358 <net+0x238>
  400f35:	48 39 fa             	cmp    %rdi,%rdx
  400f38:	0f 8e 42 02 00 00    	jle    401180 <main+0x620>
  400f3e:	4c 8b 05 5b 64 20 00 	mov    0x20645b(%rip),%r8        # 6073a0 <net+0x280>
  400f45:	48 29 fa             	sub    %rdi,%rdx
  400f48:	4d 8d 48 ff          	lea    -0x1(%r8),%r9
  400f4c:	49 0f af f8          	imul   %r8,%rdi
  400f50:	49 0f af d1          	imul   %r9,%rdx
  400f54:	48 01 fa             	add    %rdi,%rdx
  400f57:	48 01 c2             	add    %rax,%rdx
  400f5a:	48 8d 04 d2          	lea    (%rdx,%rdx,8),%rax
  400f5e:	83 c1 02             	add    $0x2,%ecx
  400f61:	48 8d 04 c6          	lea    (%rsi,%rax,8),%rax
  400f65:	89 08                	mov    %ecx,(%rax)
  400f67:	4c 89 70 10          	mov    %r14,0x10(%rax)
  400f6b:	48 8b 15 46 63 20 00 	mov    0x206346(%rip),%rdx        # 6072b8 <net+0x198>
  400f72:	4c 01 fa             	add    %r15,%rdx
  400f75:	48 6b d2 68          	imul   $0x68,%rdx,%rdx
  400f79:	4c 01 ea             	add    %r13,%rdx
  400f7c:	48 89 50 18          	mov    %rdx,0x18(%rax)
  400f80:	48 81 3d a5 63 20 00 	cmpq   $0x989680,0x2063a5(%rip)        # 607330 <net+0x210>
  400f87:	80 96 98 00 
  400f8b:	ba 80 96 98 00       	mov    $0x989680,%edx
  400f90:	48 0f 4d 15 98 63 20 	cmovge 0x206398(%rip),%rdx        # 607330 <net+0x210>
  400f97:	00 
  400f98:	49 83 c4 03          	add    $0x3,%r12
  400f9c:	48 01 d2             	add    %rdx,%rdx
  400f9f:	48 89 50 08          	mov    %rdx,0x8(%rax)
  400fa3:	48 89 50 40          	mov    %rdx,0x40(%rax)
  400fa7:	49 8b 56 38          	mov    0x38(%r14),%rdx
  400fab:	48 89 50 28          	mov    %rdx,0x28(%rax)
  400faf:	49 89 46 38          	mov    %rax,0x38(%r14)
  400fb3:	48 8b 50 18          	mov    0x18(%rax),%rdx
  400fb7:	48 8b 4a 40          	mov    0x40(%rdx),%rcx
  400fbb:	48 89 48 30          	mov    %rcx,0x30(%rax)
  400fbf:	48 89 42 40          	mov    %rax,0x40(%rdx)
  400fc3:	4c 89 e0             	mov    %r12,%rax
  400fc6:	48 8b 35 cb 63 20 00 	mov    0x2063cb(%rip),%rsi        # 607398 <net+0x278>
  400fcd:	48 99                	cqto   
  400fcf:	48 f7 3d ba 63 20 00 	idivq  0x2063ba(%rip)        # 607390 <net+0x270>
  400fd6:	48 8b 0d 7b 63 20 00 	mov    0x20637b(%rip),%rcx        # 607358 <net+0x238>
  400fdd:	48 39 f2             	cmp    %rsi,%rdx
  400fe0:	0f 8e 7a 01 00 00    	jle    401160 <main+0x600>
  400fe6:	48 8b 3d b3 63 20 00 	mov    0x2063b3(%rip),%rdi        # 6073a0 <net+0x280>
  400fed:	48 29 f2             	sub    %rsi,%rdx
  400ff0:	4c 8d 47 ff          	lea    -0x1(%rdi),%r8
  400ff4:	48 0f af f7          	imul   %rdi,%rsi
  400ff8:	49 0f af d0          	imul   %r8,%rdx
  400ffc:	48 01 f2             	add    %rsi,%rdx
  400fff:	48 01 d0             	add    %rdx,%rax
  401002:	48 8d 04 c0          	lea    (%rax,%rax,8),%rax
  401006:	48 8d 1c c1          	lea    (%rcx,%rax,8),%rbx
  40100a:	48 8b 0d a7 62 20 00 	mov    0x2062a7(%rip),%rcx        # 6072b8 <net+0x198>
  401011:	49 ff c7             	inc    %r15
  401014:	49 83 c6 68          	add    $0x68,%r14
  401018:	49 39 cf             	cmp    %rcx,%r15
  40101b:	0f 8f 9a 01 00 00    	jg     4011bb <main+0x65b>
  401021:	48 89 ea             	mov    %rbp,%rdx
  401024:	be c8 00 00 00       	mov    $0xc8,%esi
  401029:	48 8d bc 24 00 01 00 	lea    0x100(%rsp),%rdi
  401030:	00 
  401031:	e8 7a fa ff ff       	callq  400ab0 <fgets@plt>
  401036:	31 c0                	xor    %eax,%eax
  401038:	48 8d 8c 24 a0 00 00 	lea    0xa0(%rsp),%rcx
  40103f:	00 
  401040:	48 8d 94 24 98 00 00 	lea    0x98(%rsp),%rdx
  401047:	00 
  401048:	be 9a 62 40 00       	mov    $0x40629a,%esi
  40104d:	48 8d bc 24 00 01 00 	lea    0x100(%rsp),%rdi
  401054:	00 
  401055:	e8 a6 fa ff ff       	callq  400b00 <__isoc99_sscanf@plt>
  40105a:	83 f8 02             	cmp    $0x2,%eax
  40105d:	0f 85 00 1c 00 00    	jne    402c63 <main+0x2103>
  401063:	48 8b 8c 24 98 00 00 	mov    0x98(%rsp),%rcx
  40106a:	00 
  40106b:	48 8b 94 24 a0 00 00 	mov    0xa0(%rsp),%rdx
  401072:	00 
  401073:	48 39 d1             	cmp    %rdx,%rcx
  401076:	0f 8f e7 1b 00 00    	jg     402c63 <main+0x2103>
  40107c:	44 89 f8             	mov    %r15d,%eax
  40107f:	49 c7 46 50 ff ff ff 	movq   $0xffffffffffffffff,0x50(%r14)
  401086:	ff 
  401087:	f7 d8                	neg    %eax
  401089:	41 89 46 60          	mov    %eax,0x60(%r14)
  40108d:	48 8b 05 24 62 20 00 	mov    0x206224(%rip),%rax        # 6072b8 <net+0x198>
  401094:	4c 01 f8             	add    %r15,%rax
  401097:	48 6b c0 68          	imul   $0x68,%rax,%rax
  40109b:	4c 01 e8             	add    %r13,%rax
  40109e:	44 89 78 60          	mov    %r15d,0x60(%rax)
  4010a2:	48 c7 40 50 01 00 00 	movq   $0x1,0x50(%rax)
  4010a9:	00 
  4010aa:	41 89 4e 64          	mov    %ecx,0x64(%r14)
  4010ae:	89 50 64             	mov    %edx,0x64(%rax)
  4010b1:	44 89 e1             	mov    %r12d,%ecx
  4010b4:	44 89 23             	mov    %r12d,(%rbx)
  4010b7:	48 6b 05 f1 61 20 00 	imul   $0x68,0x2061f1(%rip),%rax        # 6072b0 <net+0x190>
  4010be:	68 
  4010bf:	4c 89 73 18          	mov    %r14,0x18(%rbx)
  4010c3:	4c 01 e8             	add    %r13,%rax
  4010c6:	48 89 43 10          	mov    %rax,0x10(%rbx)
  4010ca:	48 8b 35 5f 62 20 00 	mov    0x20625f(%rip),%rsi        # 607330 <net+0x210>
  4010d1:	48 8d 56 0f          	lea    0xf(%rsi),%rdx
  4010d5:	48 89 53 08          	mov    %rdx,0x8(%rbx)
  4010d9:	48 89 53 40          	mov    %rdx,0x40(%rbx)
  4010dd:	48 8b 50 38          	mov    0x38(%rax),%rdx
  4010e1:	48 89 53 28          	mov    %rdx,0x28(%rbx)
  4010e5:	48 89 58 38          	mov    %rbx,0x38(%rax)
  4010e9:	48 8b 43 18          	mov    0x18(%rbx),%rax
  4010ed:	48 8b 50 40          	mov    0x40(%rax),%rdx
  4010f1:	48 89 53 30          	mov    %rdx,0x30(%rbx)
  4010f5:	48 89 58 40          	mov    %rbx,0x40(%rax)
  4010f9:	49 8d 44 24 01       	lea    0x1(%r12),%rax
  4010fe:	48 8b 3d 93 62 20 00 	mov    0x206293(%rip),%rdi        # 607398 <net+0x278>
  401105:	48 99                	cqto   
  401107:	48 f7 3d 82 62 20 00 	idivq  0x206282(%rip)        # 607390 <net+0x270>
  40110e:	48 8b 35 43 62 20 00 	mov    0x206243(%rip),%rsi        # 607358 <net+0x238>
  401115:	48 39 fa             	cmp    %rdi,%rdx
  401118:	0f 8f 82 fd ff ff    	jg     400ea0 <main+0x340>
  40111e:	48 0f af 15 7a 62 20 	imul   0x20627a(%rip),%rdx        # 6073a0 <net+0x280>
  401125:	00 
  401126:	48 01 c2             	add    %rax,%rdx
  401129:	e9 8e fd ff ff       	jmpq   400ebc <main+0x35c>
  40112e:	48 8d 84 1f 60 f0 ff 	lea    -0xfa0(%rdi,%rbx,1),%rax
  401135:	ff 
  401136:	e9 c5 fb ff ff       	jmpq   400d00 <main+0x1a0>
  40113b:	c5 f8 28 05 4d 52 00 	vmovaps 0x524d(%rip),%xmm0        # 406390 <_IO_stdin_used+0x3b0>
  401142:	00 
  401143:	4c 89 35 76 61 20 00 	mov    %r14,0x206176(%rip)        # 6072c0 <net+0x1a0>
  40114a:	c5 f8 29 05 8e 61 20 	vmovaps %xmm0,0x20618e(%rip)        # 6072e0 <net+0x1c0>
  401151:	00 
  401152:	e9 45 fc ff ff       	jmpq   400d9c <main+0x23c>
  401157:	66 0f 1f 84 00 00 00 	nopw   0x0(%rax,%rax,1)
  40115e:	00 00 
  401160:	48 0f af 15 38 62 20 	imul   0x206238(%rip),%rdx        # 6073a0 <net+0x280>
  401167:	00 
  401168:	48 01 c2             	add    %rax,%rdx
  40116b:	48 8d 04 d2          	lea    (%rdx,%rdx,8),%rax
  40116f:	e9 92 fe ff ff       	jmpq   401006 <main+0x4a6>
  401174:	66 90                	xchg   %ax,%ax
  401176:	66 2e 0f 1f 84 00 00 	nopw   %cs:0x0(%rax,%rax,1)
  40117d:	00 00 00 
  401180:	48 0f af 15 18 62 20 	imul   0x206218(%rip),%rdx        # 6073a0 <net+0x280>
  401187:	00 
  401188:	48 01 c2             	add    %rax,%rdx
  40118b:	e9 ca fd ff ff       	jmpq   400f5a <main+0x3fa>
  401190:	48 8b 7d 10          	mov    0x10(%rbp),%rdi
  401194:	31 f6                	xor    %esi,%esi
  401196:	ba 0a 00 00 00       	mov    $0xa,%edx
  40119b:	e8 40 f9 ff ff       	callq  400ae0 <strtol@plt>
  4011a0:	be 6b 62 40 00       	mov    $0x40626b,%esi
  4011a5:	48 8d bc 24 b0 00 00 	lea    0xb0(%rsp),%rdi
  4011ac:	00 
  4011ad:	89 c2                	mov    %eax,%edx
  4011af:	31 c0                	xor    %eax,%eax
  4011b1:	e8 6a f9 ff ff       	callq  400b20 <sprintf@plt>
  4011b6:	e9 44 fa ff ff       	jmpq   400bff <main+0x9f>
  4011bb:	48 8d 51 01          	lea    0x1(%rcx),%rdx
  4011bf:	4c 39 fa             	cmp    %r15,%rdx
  4011c2:	0f 85 9b 1a 00 00    	jne    402c63 <main+0x2103>
  4011c8:	45 31 f6             	xor    %r14d,%r14d
  4011cb:	48 83 3d fd 60 20 00 	cmpq   $0x0,0x2060fd(%rip)        # 6072d0 <net+0x1b0>
  4011d2:	00 
  4011d3:	0f 8e 0c 01 00 00    	jle    4012e5 <main+0x785>
  4011d9:	0f 1f 80 00 00 00 00 	nopl   0x0(%rax)
  4011e0:	48 89 ea             	mov    %rbp,%rdx
  4011e3:	be c8 00 00 00       	mov    $0xc8,%esi
  4011e8:	48 8d bc 24 00 01 00 	lea    0x100(%rsp),%rdi
  4011ef:	00 
  4011f0:	e8 bb f8 ff ff       	callq  400ab0 <fgets@plt>
  4011f5:	31 c0                	xor    %eax,%eax
  4011f7:	4c 8d 84 24 a8 00 00 	lea    0xa8(%rsp),%r8
  4011fe:	00 
  4011ff:	48 8d 8c 24 a0 00 00 	lea    0xa0(%rsp),%rcx
  401206:	00 
  401207:	48 8d 94 24 98 00 00 	lea    0x98(%rsp),%rdx
  40120e:	00 
  40120f:	be 96 62 40 00       	mov    $0x406296,%esi
  401214:	48 8d bc 24 00 01 00 	lea    0x100(%rsp),%rdi
  40121b:	00 
  40121c:	e8 df f8 ff ff       	callq  400b00 <__isoc99_sscanf@plt>
  401221:	83 f8 03             	cmp    $0x3,%eax
  401224:	0f 85 39 1a 00 00    	jne    402c63 <main+0x2103>
  40122a:	44 89 23             	mov    %r12d,(%rbx)
  40122d:	48 8b 84 24 98 00 00 	mov    0x98(%rsp),%rax
  401234:	00 
  401235:	48 03 05 7c 60 20 00 	add    0x20607c(%rip),%rax        # 6072b8 <net+0x198>
  40123c:	49 ff c4             	inc    %r12
  40123f:	48 6b 94 24 a0 00 00 	imul   $0x68,0xa0(%rsp),%rdx
  401246:	00 68 
  401248:	49 ff c6             	inc    %r14
  40124b:	48 6b c0 68          	imul   $0x68,%rax,%rax
  40124f:	4c 01 ea             	add    %r13,%rdx
  401252:	4c 01 e8             	add    %r13,%rax
  401255:	c4 e1 f9 6e e8       	vmovq  %rax,%xmm5
  40125a:	c4 e3 d1 22 c2 01    	vpinsrq $0x1,%rdx,%xmm5,%xmm0
  401260:	48 8b 94 24 a8 00 00 	mov    0xa8(%rsp),%rdx
  401267:	00 
  401268:	c5 f8 11 43 10       	vmovups %xmm0,0x10(%rbx)
  40126d:	48 89 53 40          	mov    %rdx,0x40(%rbx)
  401271:	48 89 53 08          	mov    %rdx,0x8(%rbx)
  401275:	48 8b 50 38          	mov    0x38(%rax),%rdx
  401279:	48 89 53 28          	mov    %rdx,0x28(%rbx)
  40127d:	48 89 58 38          	mov    %rbx,0x38(%rax)
  401281:	48 8b 43 18          	mov    0x18(%rbx),%rax
  401285:	48 8b 50 40          	mov    0x40(%rax),%rdx
  401289:	48 89 53 30          	mov    %rdx,0x30(%rbx)
  40128d:	48 89 58 40          	mov    %rbx,0x40(%rax)
  401291:	4c 89 e0             	mov    %r12,%rax
  401294:	48 8b 0d fd 60 20 00 	mov    0x2060fd(%rip),%rcx        # 607398 <net+0x278>
  40129b:	48 99                	cqto   
  40129d:	48 f7 3d ec 60 20 00 	idivq  0x2060ec(%rip)        # 607390 <net+0x270>
  4012a4:	48 8b 35 ad 60 20 00 	mov    0x2060ad(%rip),%rsi        # 607358 <net+0x238>
  4012ab:	48 39 ca             	cmp    %rcx,%rdx
  4012ae:	0f 8e 0c 01 00 00    	jle    4013c0 <main+0x860>
  4012b4:	48 8b 3d e5 60 20 00 	mov    0x2060e5(%rip),%rdi        # 6073a0 <net+0x280>
  4012bb:	48 29 ca             	sub    %rcx,%rdx
  4012be:	4c 8d 47 ff          	lea    -0x1(%rdi),%r8
  4012c2:	48 0f af cf          	imul   %rdi,%rcx
  4012c6:	49 0f af d0          	imul   %r8,%rdx
  4012ca:	48 01 ca             	add    %rcx,%rdx
  4012cd:	48 01 d0             	add    %rdx,%rax
  4012d0:	4c 3b 35 f9 5f 20 00 	cmp    0x205ff9(%rip),%r14        # 6072d0 <net+0x1b0>
  4012d7:	48 8d 04 c0          	lea    (%rax,%rax,8),%rax
  4012db:	48 8d 1c c6          	lea    (%rsi,%rax,8),%rbx
  4012df:	0f 8c fb fe ff ff    	jl     4011e0 <main+0x680>
  4012e5:	48 89 ef             	mov    %rbp,%rdi
  4012e8:	e8 93 f7 ff ff       	callq  400a80 <fclose@plt>
  4012ed:	48 83 3d c3 5f 20 00 	cmpq   $0x0,0x205fc3(%rip)        # 6072b8 <net+0x198>
  4012f4:	00 
  4012f5:	c6 05 ec 5e 20 00 00 	movb   $0x0,0x205eec(%rip)        # 6071e8 <net+0xc8>
  4012fc:	be 02 00 00 00       	mov    $0x2,%esi
  401301:	bf 01 00 00 00       	mov    $0x1,%edi
  401306:	41 b8 80 96 98 00    	mov    $0x989680,%r8d
  40130c:	7f 72                	jg     401380 <main+0x820>
  40130e:	e9 dd 00 00 00       	jmpq   4013f0 <main+0x890>
  401313:	4c 8d 49 ff          	lea    -0x1(%rcx),%r9
  401317:	49 0f af cb          	imul   %r11,%rcx
  40131b:	4c 29 da             	sub    %r11,%rdx
  40131e:	49 0f af d1          	imul   %r9,%rdx
  401322:	48 01 d1             	add    %rdx,%rcx
  401325:	48 01 c8             	add    %rcx,%rax
  401328:	48 81 3d fd 5f 20 00 	cmpq   $0x989680,0x205ffd(%rip)        # 607330 <net+0x210>
  40132f:	80 96 98 00 
  401333:	48 8d 04 c0          	lea    (%rax,%rax,8),%rax
  401337:	49 8d 14 c2          	lea    (%r10,%rax,8),%rdx
  40133b:	4c 89 c0             	mov    %r8,%rax
  40133e:	48 0f 4d 05 ea 5f 20 	cmovge 0x205fea(%rip),%rax        # 607330 <net+0x210>
  401345:	00 
  401346:	48 f7 d8             	neg    %rax
  401349:	48 01 c0             	add    %rax,%rax
  40134c:	48 89 42 08          	mov    %rax,0x8(%rdx)
  401350:	48 81 3d d5 5f 20 00 	cmpq   $0x989680,0x205fd5(%rip)        # 607330 <net+0x210>
  401357:	80 96 98 00 
  40135b:	4c 89 c0             	mov    %r8,%rax
  40135e:	48 0f 4d 05 ca 5f 20 	cmovge 0x205fca(%rip),%rax        # 607330 <net+0x210>
  401365:	00 
  401366:	48 ff c7             	inc    %rdi
  401369:	48 83 c6 03          	add    $0x3,%rsi
  40136d:	48 f7 d8             	neg    %rax
  401370:	48 01 c0             	add    %rax,%rax
  401373:	48 89 42 40          	mov    %rax,0x40(%rdx)
  401377:	48 39 3d 3a 5f 20 00 	cmp    %rdi,0x205f3a(%rip)        # 6072b8 <net+0x198>
  40137e:	7c 70                	jl     4013f0 <main+0x890>
  401380:	48 89 f0             	mov    %rsi,%rax
  401383:	4c 8b 1d 0e 60 20 00 	mov    0x20600e(%rip),%r11        # 607398 <net+0x278>
  40138a:	4c 8b 15 c7 5f 20 00 	mov    0x205fc7(%rip),%r10        # 607358 <net+0x238>
  401391:	48 99                	cqto   
  401393:	48 8b 0d 06 60 20 00 	mov    0x206006(%rip),%rcx        # 6073a0 <net+0x280>
  40139a:	48 f7 3d ef 5f 20 00 	idivq  0x205fef(%rip)        # 607390 <net+0x270>
  4013a1:	49 39 d3             	cmp    %rdx,%r11
  4013a4:	0f 8c 69 ff ff ff    	jl     401313 <main+0x7b3>
  4013aa:	48 0f af ca          	imul   %rdx,%rcx
  4013ae:	48 01 c8             	add    %rcx,%rax
  4013b1:	e9 72 ff ff ff       	jmpq   401328 <main+0x7c8>
  4013b6:	66 2e 0f 1f 84 00 00 	nopw   %cs:0x0(%rax,%rax,1)
  4013bd:	00 00 00 
  4013c0:	48 0f af 15 d8 5f 20 	imul   0x205fd8(%rip),%rdx        # 6073a0 <net+0x280>
  4013c7:	00 
  4013c8:	48 01 c2             	add    %rax,%rdx
  4013cb:	4c 3b 35 fe 5e 20 00 	cmp    0x205efe(%rip),%r14        # 6072d0 <net+0x1b0>
  4013d2:	48 8d 04 d2          	lea    (%rdx,%rdx,8),%rax
  4013d6:	48 8d 1c c6          	lea    (%rsi,%rax,8),%rbx
  4013da:	0f 8c 00 fe ff ff    	jl     4011e0 <main+0x680>
  4013e0:	e9 00 ff ff ff       	jmpq   4012e5 <main+0x785>
  4013e5:	90                   	nop
  4013e6:	66 2e 0f 1f 84 00 00 	nopw   %cs:0x0(%rax,%rax,1)
  4013ed:	00 00 00 
  4013f0:	48 8b 35 c1 5e 20 00 	mov    0x205ec1(%rip),%rsi        # 6072b8 <net+0x198>
  4013f7:	bf 00 62 40 00       	mov    $0x406200,%edi
  4013fc:	31 c0                	xor    %eax,%eax
  4013fe:	e8 8d f6 ff ff       	callq  400a90 <printf@plt>
  401403:	48 8b 15 3e 5f 20 00 	mov    0x205f3e(%rip),%rdx        # 607348 <net+0x228>
  40140a:	31 f6                	xor    %esi,%esi
  40140c:	48 8d 42 68          	lea    0x68(%rdx),%rax
  401410:	48 c7 42 30 00 00 00 	movq   $0x0,0x30(%rdx)
  401417:	00 
  401418:	48 c7 42 18 00 00 00 	movq   $0x0,0x18(%rdx)
  40141f:	00 
  401420:	48 89 42 10          	mov    %rax,0x10(%rdx)
  401424:	48 c7 42 20 00 00 00 	movq   $0x0,0x20(%rdx)
  40142b:	00 
  40142c:	48 c7 42 28 00 00 00 	movq   $0x0,0x28(%rdx)
  401433:	00 
  401434:	48 8b 1d 75 5e 20 00 	mov    0x205e75(%rip),%rbx        # 6072b0 <net+0x190>
  40143b:	c7 42 08 00 00 00 00 	movl   $0x0,0x8(%rdx)
  401442:	48 c7 02 00 1f 0a fa 	movq   $0xfffffffffa0a1f00,(%rdx)
  401449:	48 c7 42 50 00 00 00 	movq   $0x0,0x50(%rdx)
  401450:	00 
  401451:	48 8d 4b 01          	lea    0x1(%rbx),%rcx
  401455:	48 89 4a 58          	mov    %rcx,0x58(%rdx)
  401459:	48 8b 1d f8 5e 20 00 	mov    0x205ef8(%rip),%rbx        # 607358 <net+0x238>
  401460:	48 8b 3d 61 5e 20 00 	mov    0x205e61(%rip),%rdi        # 6072c8 <net+0x1a8>
  401467:	48 8d 8b c0 05 00 00 	lea    0x5c0(%rbx),%rcx
  40146e:	48 85 ff             	test   %rdi,%rdi
  401471:	7e 3a                	jle    4014ad <main+0x94d>
  401473:	0f 1f 00             	nopl   (%rax)
  401476:	66 2e 0f 1f 84 00 00 	nopw   %cs:0x0(%rax,%rax,1)
  40147d:	00 00 00 
  401480:	66 83 b9 60 fa ff ff 	cmpw   $0xffff,-0x5a0(%rcx)
  401487:	ff 
  401488:	0f 18 09             	prefetcht0 (%rcx)
  40148b:	0f 84 ff 14 00 00    	je     402990 <main+0x1e30>
  401491:	66 c7 81 60 fa ff ff 	movw   $0x1,-0x5a0(%rcx)
  401498:	01 00 
  40149a:	48 8b 3d 27 5e 20 00 	mov    0x205e27(%rip),%rdi        # 6072c8 <net+0x1a8>
  4014a1:	48 ff c6             	inc    %rsi
  4014a4:	48 83 c1 48          	add    $0x48,%rcx
  4014a8:	48 39 fe             	cmp    %rdi,%rsi
  4014ab:	7c d3                	jl     401480 <main+0x920>
  4014ad:	48 8b 35 fc 5d 20 00 	mov    0x205dfc(%rip),%rsi        # 6072b0 <net+0x190>
  4014b4:	48 8b 0d b5 5e 20 00 	mov    0x205eb5(%rip),%rcx        # 607370 <net+0x250>
  4014bb:	48 85 f6             	test   %rsi,%rsi
  4014be:	0f 8e 7d 00 00 00    	jle    401541 <main+0x9e1>
  4014c4:	31 ff                	xor    %edi,%edi
  4014c6:	66 2e 0f 1f 84 00 00 	nopw   %cs:0x0(%rax,%rax,1)
  4014cd:	00 00 00 
  4014d0:	48 8d 70 98          	lea    -0x68(%rax),%rsi
  4014d4:	4c 8d 40 68          	lea    0x68(%rax),%r8
  4014d8:	48 89 48 30          	mov    %rcx,0x30(%rax)
  4014dc:	48 89 50 18          	mov    %rdx,0x18(%rax)
  4014e0:	48 c7 40 10 00 00 00 	movq   $0x0,0x10(%rax)
  4014e7:	00 
  4014e8:	4c 89 40 20          	mov    %r8,0x20(%rax)
  4014ec:	48 ff c7             	inc    %rdi
  4014ef:	48 83 c1 48          	add    $0x48,%rcx
  4014f3:	48 89 70 28          	mov    %rsi,0x28(%rax)
  4014f7:	48 c7 40 58 01 00 00 	movq   $0x1,0x58(%rax)
  4014fe:	00 
  4014ff:	48 c7 41 c0 00 e1 f5 	movq   $0x5f5e100,-0x40(%rcx)
  401506:	05 
  401507:	66 c7 41 d8 00 00    	movw   $0x0,-0x28(%rcx)
  40150d:	c7 40 08 01 00 00 00 	movl   $0x1,0x8(%rax)
  401514:	48 c7 00 00 00 00 00 	movq   $0x0,(%rax)
  40151b:	48 89 41 c8          	mov    %rax,-0x38(%rcx)
  40151f:	48 89 51 d0          	mov    %rdx,-0x30(%rcx)
  401523:	c7 41 b8 fe ff ff ff 	movl   $0xfffffffe,-0x48(%rcx)
  40152a:	48 c7 40 50 00 00 00 	movq   $0x0,0x50(%rax)
  401531:	00 
  401532:	4c 89 c0             	mov    %r8,%rax
  401535:	48 8b 35 74 5d 20 00 	mov    0x205d74(%rip),%rsi        # 6072b0 <net+0x190>
  40153c:	48 39 fe             	cmp    %rdi,%rsi
  40153f:	7f 8f                	jg     4014d0 <main+0x970>
  401541:	48 6b f6 68          	imul   $0x68,%rsi,%rsi
  401545:	48 c7 44 32 20 00 00 	movq   $0x0,0x20(%rdx,%rsi,1)
  40154c:	00 00 
  40154e:	48 c7 82 90 00 00 00 	movq   $0x0,0x90(%rdx)
  401555:	00 00 00 00 
  401559:	0f 1f 80 00 00 00 00 	nopl   0x0(%rax)
  401560:	bf e0 60 40 00       	mov    $0x4060e0,%edi
  401565:	31 c0                	xor    %eax,%eax
  401567:	48 8b 35 5a 5d 20 00 	mov    0x205d5a(%rip),%rsi        # 6072c8 <net+0x1a8>
  40156e:	e8 1d f5 ff ff       	callq  400a90 <printf@plt>
  401573:	be 08 00 00 00       	mov    $0x8,%esi
  401578:	bf 01 00 00 00       	mov    $0x1,%edi
  40157d:	e8 de f4 ff ff       	callq  400a60 <calloc@plt>
  401582:	be 08 00 00 00       	mov    $0x8,%esi
  401587:	bf 01 00 00 00       	mov    $0x1,%edi
  40158c:	48 89 05 6d 5b 20 00 	mov    %rax,0x205b6d(%rip)        # 607100 <perm_p>
  401593:	e8 c8 f4 ff ff       	callq  400a60 <calloc@plt>
  401598:	be 08 00 00 00       	mov    $0x8,%esi
  40159d:	bf 01 00 00 00       	mov    $0x1,%edi
  4015a2:	48 89 05 5f 5b 20 00 	mov    %rax,0x205b5f(%rip)        # 607108 <opt_basket>
  4015a9:	e8 b2 f4 ff ff       	callq  400a60 <calloc@plt>
  4015ae:	be 20 00 00 00       	mov    $0x20,%esi
  4015b3:	bf a5 10 00 00       	mov    $0x10a5,%edi
  4015b8:	48 89 05 59 5b 20 00 	mov    %rax,0x205b59(%rip)        # 607118 <basket_sizes>
  4015bf:	e8 9c f4 ff ff       	callq  400a60 <calloc@plt>
  4015c4:	48 89 05 45 5b 20 00 	mov    %rax,0x205b45(%rip)        # 607110 <basket>
  4015cb:	48 8b 05 c6 5d 20 00 	mov    0x205dc6(%rip),%rax        # 607398 <net+0x278>
  4015d2:	48 0f af 05 c6 5d 20 	imul   0x205dc6(%rip),%rax        # 6073a0 <net+0x280>
  4015d9:	00 
  4015da:	48 8d 14 c0          	lea    (%rax,%rax,8),%rdx
  4015de:	48 8b 05 73 5d 20 00 	mov    0x205d73(%rip),%rax        # 607358 <net+0x238>
  4015e5:	48 8d 04 d0          	lea    (%rax,%rdx,8),%rax
  4015e9:	48 89 05 00 5b 20 00 	mov    %rax,0x205b00(%rip)        # 6070f0 <full_group_end_arc>
  4015f0:	e8 bb 3f 00 00       	callq  4055b0 <master.constprop.6>
  4015f5:	48 8b 05 4c 5d 20 00 	mov    0x205d4c(%rip),%rax        # 607348 <net+0x228>
  4015fc:	4c 8b 35 4d 5d 20 00 	mov    0x205d4d(%rip),%r14        # 607350 <net+0x230>
  401603:	4c 8b 2d 66 5d 20 00 	mov    0x205d66(%rip),%r13        # 607370 <net+0x250>
  40160a:	4c 8b 25 67 5d 20 00 	mov    0x205d67(%rip),%r12        # 607378 <net+0x258>
  401611:	48 8d 58 68          	lea    0x68(%rax),%rbx
  401615:	49 39 de             	cmp    %rbx,%r14
  401618:	77 2c                	ja     401646 <main+0xae6>
  40161a:	e9 61 13 00 00       	jmpq   402980 <main+0x1e20>
  40161f:	90                   	nop
  401620:	48 89 e9             	mov    %rbp,%rcx
  401623:	48 c1 f9 3f          	sar    $0x3f,%rcx
  401627:	48 89 ca             	mov    %rcx,%rdx
  40162a:	48 31 ea             	xor    %rbp,%rdx
  40162d:	48 29 ca             	sub    %rcx,%rdx
  401630:	48 39 c2             	cmp    %rax,%rdx
  401633:	0f 8f 77 13 00 00    	jg     4029b0 <main+0x1e50>
  401639:	48 83 c3 68          	add    $0x68,%rbx
  40163d:	49 39 de             	cmp    %rbx,%r14
  401640:	0f 86 3a 13 00 00    	jbe    402980 <main+0x1e20>
  401646:	48 8b 53 30          	mov    0x30(%rbx),%rdx
  40164a:	0f 18 8b 38 02 00 00 	prefetcht0 0x238(%rbx)
  401651:	48 8b 6b 50          	mov    0x50(%rbx),%rbp
  401655:	48 8b 05 c4 5c 20 00 	mov    0x205cc4(%rip),%rax        # 607320 <net+0x200>
  40165c:	49 39 d5             	cmp    %rdx,%r13
  40165f:	77 05                	ja     401666 <main+0xb06>
  401661:	49 39 d4             	cmp    %rdx,%r12
  401664:	77 ba                	ja     401620 <main+0xac0>
  401666:	48 89 c2             	mov    %rax,%rdx
  401669:	48 f7 da             	neg    %rdx
  40166c:	48 39 d5             	cmp    %rdx,%rbp
  40166f:	7c 09                	jl     40167a <main+0xb1a>
  401671:	48 8d 55 ff          	lea    -0x1(%rbp),%rdx
  401675:	48 39 c2             	cmp    %rax,%rdx
  401678:	7e bf                	jle    401639 <main+0xad9>
  40167a:	bf b3 62 40 00       	mov    $0x4062b3,%edi
  40167f:	31 c0                	xor    %eax,%eax
  401681:	e8 0a f4 ff ff       	callq  400a90 <printf@plt>
  401686:	48 89 ee             	mov    %rbp,%rsi
  401689:	bf 40 61 40 00       	mov    $0x406140,%edi
  40168e:	31 c0                	xor    %eax,%eax
  401690:	e8 fb f3 ff ff       	callq  400a90 <printf@plt>
  401695:	48 c7 05 68 5c 20 00 	movq   $0x0,0x205c68(%rip)        # 607308 <net+0x1e8>
  40169c:	00 00 00 00 
  4016a0:	48 8b 3d b9 5c 20 00 	mov    0x205cb9(%rip),%rdi        # 607360 <net+0x240>
  4016a7:	48 8b 05 aa 5c 20 00 	mov    0x205caa(%rip),%rax        # 607358 <net+0x238>
  4016ae:	48 39 c7             	cmp    %rax,%rdi
  4016b1:	0f 86 89 00 00 00    	jbe    401740 <main+0xbe0>
  4016b7:	48 8b 35 62 5c 20 00 	mov    0x205c62(%rip),%rsi        # 607320 <net+0x200>
  4016be:	49 89 f0             	mov    %rsi,%r8
  4016c1:	49 f7 d8             	neg    %r8
  4016c4:	eb 1e                	jmp    4016e4 <main+0xb84>
  4016c6:	66 2e 0f 1f 84 00 00 	nopw   %cs:0x0(%rax,%rax,1)
  4016cd:	00 00 00 
  4016d0:	66 83 f9 02          	cmp    $0x2,%cx
  4016d4:	75 05                	jne    4016db <main+0xb7b>
  4016d6:	48 39 f2             	cmp    %rsi,%rdx
  4016d9:	7f 2f                	jg     40170a <main+0xbaa>
  4016db:	48 83 c0 48          	add    $0x48,%rax
  4016df:	48 39 c7             	cmp    %rax,%rdi
  4016e2:	76 5c                	jbe    401740 <main+0xbe0>
  4016e4:	48 8b 48 10          	mov    0x10(%rax),%rcx
  4016e8:	48 8b 50 08          	mov    0x8(%rax),%rdx
  4016ec:	48 2b 11             	sub    (%rcx),%rdx
  4016ef:	48 8b 48 18          	mov    0x18(%rax),%rcx
  4016f3:	48 03 11             	add    (%rcx),%rdx
  4016f6:	0f b7 48 20          	movzwl 0x20(%rax),%ecx
  4016fa:	66 85 c9             	test   %cx,%cx
  4016fd:	78 dc                	js     4016db <main+0xb7b>
  4016ff:	66 83 f9 01          	cmp    $0x1,%cx
  401703:	7f cb                	jg     4016d0 <main+0xb70>
  401705:	4c 39 c2             	cmp    %r8,%rdx
  401708:	7d d1                	jge    4016db <main+0xb7b>
  40170a:	48 8b 0d c7 59 20 00 	mov    0x2059c7(%rip),%rcx        # 6070d8 <stderr@@GLIBC_2.2.5>
  401711:	ba 16 00 00 00       	mov    $0x16,%edx
  401716:	be 01 00 00 00       	mov    $0x1,%esi
  40171b:	bf cc 62 40 00       	mov    $0x4062cc,%edi
  401720:	e8 1b f4 ff ff       	callq  400b40 <fwrite@plt>
  401725:	48 8b 0d ac 59 20 00 	mov    0x2059ac(%rip),%rcx        # 6070d8 <stderr@@GLIBC_2.2.5>
  40172c:	ba 16 00 00 00       	mov    $0x16,%edx
  401731:	be 01 00 00 00       	mov    $0x1,%esi
  401736:	bf e3 62 40 00       	mov    $0x4062e3,%edi
  40173b:	e8 00 f4 ff ff       	callq  400b40 <fwrite@plt>
  401740:	48 8b 3d b9 59 20 00 	mov    0x2059b9(%rip),%rdi        # 607100 <perm_p>
  401747:	48 c7 05 a6 59 20 00 	movq   $0x0,0x2059a6(%rip)        # 6070f8 <opt>
  40174e:	00 00 00 00 
  401752:	e8 19 f3 ff ff       	callq  400a70 <free@plt>
  401757:	48 8b 3d aa 59 20 00 	mov    0x2059aa(%rip),%rdi        # 607108 <opt_basket>
  40175e:	e8 0d f3 ff ff       	callq  400a70 <free@plt>
  401763:	48 8b 3d ae 59 20 00 	mov    0x2059ae(%rip),%rdi        # 607118 <basket_sizes>
  40176a:	e8 01 f3 ff ff       	callq  400a70 <free@plt>
  40176f:	48 8b 3d 9a 59 20 00 	mov    0x20599a(%rip),%rdi        # 607110 <basket>
  401776:	e8 f5 f2 ff ff       	callq  400a70 <free@plt>
  40177b:	48 8b 35 fe 5b 20 00 	mov    0x205bfe(%rip),%rsi        # 607380 <net+0x260>
  401782:	bf 60 61 40 00       	mov    $0x406160,%edi
  401787:	31 c0                	xor    %eax,%eax
  401789:	e8 02 f3 ff ff       	callq  400a90 <printf@plt>
  40178e:	e8 0d 16 00 00       	callq  402da0 <flow_cost.constprop.30>
  401793:	bf 88 61 40 00       	mov    $0x406188,%edi
  401798:	b8 01 00 00 00       	mov    $0x1,%eax
  40179d:	e8 ee f2 ff ff       	callq  400a90 <printf@plt>
  4017a2:	4c 8b 05 2f 5b 20 00 	mov    0x205b2f(%rip),%r8        # 6072d8 <net+0x1b8>
  4017a9:	4d 85 c0             	test   %r8,%r8
  4017ac:	0f 84 ae 11 00 00    	je     402960 <main+0x1e00>
  4017b2:	48 8b 1d 0f 5b 20 00 	mov    0x205b0f(%rip),%rbx        # 6072c8 <net+0x1a8>
  4017b9:	48 b9 cf f7 53 e3 a5 	movabs $0x20c49ba5e353f7cf,%rcx
  4017c0:	9b c4 20 
  4017c3:	48 c7 05 d2 5b 20 00 	movq   $0xfa0,0x205bd2(%rip)        # 6073a0 <net+0x280>
  4017ca:	a0 0f 00 00 
  4017ce:	48 8d 73 ff          	lea    -0x1(%rbx),%rsi
  4017d2:	48 89 f0             	mov    %rsi,%rax
  4017d5:	48 c1 fe 3f          	sar    $0x3f,%rsi
  4017d9:	48 f7 e9             	imul   %rcx
  4017dc:	48 89 d8             	mov    %rbx,%rax
  4017df:	48 c1 fa 09          	sar    $0x9,%rdx
  4017e3:	48 29 f2             	sub    %rsi,%rdx
  4017e6:	48 8d 72 01          	lea    0x1(%rdx),%rsi
  4017ea:	48 f7 e9             	imul   %rcx
  4017ed:	48 89 d8             	mov    %rbx,%rax
  4017f0:	48 c1 f8 3f          	sar    $0x3f,%rax
  4017f4:	48 89 f7             	mov    %rsi,%rdi
  4017f7:	48 89 35 92 5b 20 00 	mov    %rsi,0x205b92(%rip)        # 607390 <net+0x270>
  4017fe:	48 89 d1             	mov    %rdx,%rcx
  401801:	48 c1 f9 09          	sar    $0x9,%rcx
  401805:	48 29 c1             	sub    %rax,%rcx
  401808:	48 69 c9 a0 0f 00 00 	imul   $0xfa0,%rcx,%rcx
  40180f:	48 29 d9             	sub    %rbx,%rcx
  401812:	48 8d 81 a0 0f 00 00 	lea    0xfa0(%rcx),%rax
  401819:	48 29 c7             	sub    %rax,%rdi
  40181c:	48 89 3d 75 5b 20 00 	mov    %rdi,0x205b75(%rip)        # 607398 <net+0x278>
  401823:	0f 89 27 11 00 00    	jns    402950 <main+0x1df0>
  401829:	b8 9f 0f 00 00       	mov    $0xf9f,%eax
  40182e:	66 90                	xchg   %ax,%ax
  401830:	48 01 f7             	add    %rsi,%rdi
  401833:	48 89 c1             	mov    %rax,%rcx
  401836:	48 8d 40 ff          	lea    -0x1(%rax),%rax
  40183a:	78 f4                	js     401830 <main+0xcd0>
  40183c:	c4 e1 f9 6e f7       	vmovq  %rdi,%xmm6
  401841:	c4 e3 c9 22 c1 01    	vpinsrq $0x1,%rcx,%xmm6,%xmm0
  401847:	c5 f8 11 05 49 5b 20 	vmovups %xmm0,0x205b49(%rip)        # 607398 <net+0x278>
  40184e:	00 
  40184f:	49 89 d9             	mov    %rbx,%r9
  401852:	4d 29 c1             	sub    %r8,%r9
  401855:	4c 39 cb             	cmp    %r9,%rbx
  401858:	0f 8e 32 02 00 00    	jle    401a90 <main+0xf30>
  40185e:	4d 89 c8             	mov    %r9,%r8
  401861:	45 31 d2             	xor    %r10d,%r10d
  401864:	eb 78                	jmp    4018de <main+0xd7e>
  401866:	66 2e 0f 1f 84 00 00 	nopw   %cs:0x0(%rax,%rax,1)
  40186d:	00 00 00 
  401870:	48 29 fa             	sub    %rdi,%rdx
  401873:	48 0f af f9          	imul   %rcx,%rdi
  401877:	48 8d 71 ff          	lea    -0x1(%rcx),%rsi
  40187b:	48 0f af d6          	imul   %rsi,%rdx
  40187f:	48 01 fa             	add    %rdi,%rdx
  401882:	48 01 c2             	add    %rax,%rdx
  401885:	48 8d 04 d2          	lea    (%rdx,%rdx,8),%rax
  401889:	49 8d 04 c3          	lea    (%r11,%rax,8),%rax
  40188d:	0f b7 50 20          	movzwl 0x20(%rax),%edx
  401891:	66 83 fa 01          	cmp    $0x1,%dx
  401895:	0f 84 85 10 00 00    	je     402920 <main+0x1dc0>
  40189b:	66 85 d2             	test   %dx,%dx
  40189e:	75 12                	jne    4018b2 <main+0xd52>
  4018a0:	48 8b 50 10          	mov    0x10(%rax),%rdx
  4018a4:	48 3b 42 30          	cmp    0x30(%rdx),%rax
  4018a8:	74 08                	je     4018b2 <main+0xd52>
  4018aa:	48 8b 50 18          	mov    0x18(%rax),%rdx
  4018ae:	48 89 42 30          	mov    %rax,0x30(%rdx)
  4018b2:	44 89 ca             	mov    %r9d,%edx
  4018b5:	49 ff c1             	inc    %r9
  4018b8:	89 10                	mov    %edx,(%rax)
  4018ba:	48 8b 1d 07 5a 20 00 	mov    0x205a07(%rip),%rbx        # 6072c8 <net+0x1a8>
  4018c1:	49 ff c0             	inc    %r8
  4018c4:	49 39 d8             	cmp    %rbx,%r8
  4018c7:	7d 37                	jge    401900 <main+0xda0>
  4018c9:	48 8b 35 c0 5a 20 00 	mov    0x205ac0(%rip),%rsi        # 607390 <net+0x270>
  4018d0:	48 8b 3d c1 5a 20 00 	mov    0x205ac1(%rip),%rdi        # 607398 <net+0x278>
  4018d7:	48 8b 0d c2 5a 20 00 	mov    0x205ac2(%rip),%rcx        # 6073a0 <net+0x280>
  4018de:	4c 89 c0             	mov    %r8,%rax
  4018e1:	4c 8b 1d 70 5a 20 00 	mov    0x205a70(%rip),%r11        # 607358 <net+0x238>
  4018e8:	48 99                	cqto   
  4018ea:	48 f7 fe             	idiv   %rsi
  4018ed:	48 39 fa             	cmp    %rdi,%rdx
  4018f0:	0f 8f 7a ff ff ff    	jg     401870 <main+0xd10>
  4018f6:	48 0f af d1          	imul   %rcx,%rdx
  4018fa:	48 01 c2             	add    %rax,%rdx
  4018fd:	eb 86                	jmp    401885 <main+0xd25>
  4018ff:	90                   	nop
  401900:	4d 85 d2             	test   %r10,%r10
  401903:	0f 84 87 01 00 00    	je     401a90 <main+0xf30>
  401909:	48 89 de             	mov    %rbx,%rsi
  40190c:	48 b9 cf f7 53 e3 a5 	movabs $0x20c49ba5e353f7cf,%rcx
  401913:	9b c4 20 
  401916:	c5 f8 10 25 ba 59 20 	vmovups 0x2059ba(%rip),%xmm4        # 6072d8 <net+0x1b8>
  40191d:	00 
  40191e:	c4 c1 f9 6e fa       	vmovq  %r10,%xmm7
  401923:	4c 29 d6             	sub    %r10,%rsi
  401926:	c5 c1 6c c7          	vpunpcklqdq %xmm7,%xmm7,%xmm0
  40192a:	48 c7 05 6b 5a 20 00 	movq   $0xfa0,0x205a6b(%rip)        # 6073a0 <net+0x280>
  401931:	a0 0f 00 00 
  401935:	48 8d 7e ff          	lea    -0x1(%rsi),%rdi
  401939:	48 89 f8             	mov    %rdi,%rax
  40193c:	48 c1 ff 3f          	sar    $0x3f,%rdi
  401940:	48 f7 e9             	imul   %rcx
  401943:	48 89 f0             	mov    %rsi,%rax
  401946:	48 c1 fa 09          	sar    $0x9,%rdx
  40194a:	48 29 fa             	sub    %rdi,%rdx
  40194d:	c5 d9 fb c8          	vpsubq %xmm0,%xmm4,%xmm1
  401951:	c5 f9 d4 c4          	vpaddq %xmm4,%xmm0,%xmm0
  401955:	48 8d 7a 01          	lea    0x1(%rdx),%rdi
  401959:	48 f7 e9             	imul   %rcx
  40195c:	48 89 f0             	mov    %rsi,%rax
  40195f:	c5 f1 c6 c0 02       	vshufpd $0x2,%xmm0,%xmm1,%xmm0
  401964:	48 c1 f8 3f          	sar    $0x3f,%rax
  401968:	c5 f8 11 05 68 59 20 	vmovups %xmm0,0x205968(%rip)        # 6072d8 <net+0x1b8>
  40196f:	00 
  401970:	48 89 3d 19 5a 20 00 	mov    %rdi,0x205a19(%rip)        # 607390 <net+0x270>
  401977:	48 c1 fa 09          	sar    $0x9,%rdx
  40197b:	48 29 c2             	sub    %rax,%rdx
  40197e:	48 89 f8             	mov    %rdi,%rax
  401981:	48 69 d2 a0 0f 00 00 	imul   $0xfa0,%rdx,%rdx
  401988:	48 29 d6             	sub    %rdx,%rsi
  40198b:	74 08                	je     401995 <main+0xe35>
  40198d:	48 8d 84 37 60 f0 ff 	lea    -0xfa0(%rdi,%rsi,1),%rax
  401994:	ff 
  401995:	48 89 05 fc 59 20 00 	mov    %rax,0x2059fc(%rip)        # 607398 <net+0x278>
  40199c:	48 85 c0             	test   %rax,%rax
  40199f:	79 2d                	jns    4019ce <main+0xe6e>
  4019a1:	ba 9f 0f 00 00       	mov    $0xf9f,%edx
  4019a6:	66 2e 0f 1f 84 00 00 	nopw   %cs:0x0(%rax,%rax,1)
  4019ad:	00 00 00 
  4019b0:	48 89 d1             	mov    %rdx,%rcx
  4019b3:	48 ff ca             	dec    %rdx
  4019b6:	48 01 f8             	add    %rdi,%rax
  4019b9:	78 f5                	js     4019b0 <main+0xe50>
  4019bb:	c4 e1 f9 6e e8       	vmovq  %rax,%xmm5
  4019c0:	c4 e3 d1 22 c1 01    	vpinsrq $0x1,%rcx,%xmm5,%xmm0
  4019c6:	c5 f8 11 05 ca 59 20 	vmovups %xmm0,0x2059ca(%rip)        # 607398 <net+0x278>
  4019cd:	00 
  4019ce:	48 89 df             	mov    %rbx,%rdi
  4019d1:	e8 1a 15 00 00       	callq  402ef0 <refreshPositions.constprop.25>
  4019d6:	48 8b 15 73 59 20 00 	mov    0x205973(%rip),%rdx        # 607350 <net+0x230>
  4019dd:	c5 f8 57 c0          	vxorps %xmm0,%xmm0,%xmm0
  4019e1:	4b 8d 04 d2          	lea    (%r10,%r10,8),%rax
  4019e5:	4c 29 15 dc 58 20 00 	sub    %r10,0x2058dc(%rip)        # 6072c8 <net+0x1a8>
  4019ec:	48 c1 e0 03          	shl    $0x3,%rax
  4019f0:	48 29 05 69 59 20 00 	sub    %rax,0x205969(%rip)        # 607360 <net+0x240>
  4019f7:	48 8b 05 4a 59 20 00 	mov    0x20594a(%rip),%rax        # 607348 <net+0x228>
  4019fe:	48 39 d0             	cmp    %rdx,%rax
  401a01:	73 1b                	jae    401a1e <main+0xebe>
  401a03:	0f 1f 00             	nopl   (%rax)
  401a06:	66 2e 0f 1f 84 00 00 	nopw   %cs:0x0(%rax,%rax,1)
  401a0d:	00 00 00 
  401a10:	c5 f8 11 40 38       	vmovups %xmm0,0x38(%rax)
  401a15:	48 83 c0 68          	add    $0x68,%rax
  401a19:	48 39 c2             	cmp    %rax,%rdx
  401a1c:	77 f2                	ja     401a10 <main+0xeb0>
  401a1e:	31 d2                	xor    %edx,%edx
  401a20:	48 83 3d a0 58 20 00 	cmpq   $0x0,0x2058a0(%rip)        # 6072c8 <net+0x1a8>
  401a27:	00 
  401a28:	48 8b 05 29 59 20 00 	mov    0x205929(%rip),%rax        # 607358 <net+0x238>
  401a2f:	b9 48 00 00 00       	mov    $0x48,%ecx
  401a34:	7e 44                	jle    401a7a <main+0xf1a>
  401a36:	66 2e 0f 1f 84 00 00 	nopw   %cs:0x0(%rax,%rax,1)
  401a3d:	00 00 00 
  401a40:	48 8b 70 10          	mov    0x10(%rax),%rsi
  401a44:	48 ff c2             	inc    %rdx
  401a47:	48 8b 7e 38          	mov    0x38(%rsi),%rdi
  401a4b:	48 89 78 28          	mov    %rdi,0x28(%rax)
  401a4f:	48 89 46 38          	mov    %rax,0x38(%rsi)
  401a53:	48 8b 70 18          	mov    0x18(%rax),%rsi
  401a57:	48 8b 7e 40          	mov    0x40(%rsi),%rdi
  401a5b:	48 89 78 30          	mov    %rdi,0x30(%rax)
  401a5f:	48 89 46 40          	mov    %rax,0x40(%rsi)
  401a63:	48 8b 05 ee 58 20 00 	mov    0x2058ee(%rip),%rax        # 607358 <net+0x238>
  401a6a:	48 01 c8             	add    %rcx,%rax
  401a6d:	48 83 c1 48          	add    $0x48,%rcx
  401a71:	48 39 15 50 58 20 00 	cmp    %rdx,0x205850(%rip)        # 6072c8 <net+0x1a8>
  401a78:	7f c6                	jg     401a40 <main+0xee0>
  401a7a:	4c 89 d6             	mov    %r10,%rsi
  401a7d:	bf 28 62 40 00       	mov    $0x406228,%edi
  401a82:	31 c0                	xor    %eax,%eax
  401a84:	e8 07 f0 ff ff       	callq  400a90 <printf@plt>
  401a89:	48 8b 1d 38 58 20 00 	mov    0x205838(%rip),%rbx        # 6072c8 <net+0x1a8>
  401a90:	48 8b 05 99 58 20 00 	mov    0x205899(%rip),%rax        # 607330 <net+0x210>
  401a97:	bf 08 00 00 00       	mov    $0x8,%edi
  401a9c:	48 89 44 24 18       	mov    %rax,0x18(%rsp)
  401aa1:	e8 aa f0 ff ff       	callq  400b50 <malloc@plt>
  401aa6:	bf 08 00 00 00       	mov    $0x8,%edi
  401aab:	48 89 44 24 40       	mov    %rax,0x40(%rsp)
  401ab0:	e8 9b f0 ff ff       	callq  400b50 <malloc@plt>
  401ab5:	bf 08 00 00 00       	mov    $0x8,%edi
  401aba:	49 89 c6             	mov    %rax,%r14
  401abd:	e8 8e f0 ff ff       	callq  400b50 <malloc@plt>
  401ac2:	bf 08 00 00 00       	mov    $0x8,%edi
  401ac7:	48 89 44 24 58       	mov    %rax,0x58(%rsp)
  401acc:	e8 7f f0 ff ff       	callq  400b50 <malloc@plt>
  401ad1:	48 8b 35 e0 57 20 00 	mov    0x2057e0(%rip),%rsi        # 6072b8 <net+0x198>
  401ad8:	48 89 44 24 10       	mov    %rax,0x10(%rsp)
  401add:	48 8b 05 04 58 20 00 	mov    0x205804(%rip),%rax        # 6072e8 <net+0x1c8>
  401ae4:	48 8b 15 d5 57 20 00 	mov    0x2057d5(%rip),%rdx        # 6072c0 <net+0x1a0>
  401aeb:	48 89 74 24 20       	mov    %rsi,0x20(%rsp)
  401af0:	48 01 d8             	add    %rbx,%rax
  401af3:	48 81 fe 98 3a 00 00 	cmp    $0x3a98,%rsi
  401afa:	0f 8f d0 0f 00 00    	jg     402ad0 <main+0x1f70>
  401b00:	48 39 d0             	cmp    %rdx,%rax
  401b03:	0f 8e a7 0f 00 00    	jle    402ab0 <main+0x1f50>
  401b09:	48 89 f0             	mov    %rsi,%rax
  401b0c:	48 c7 44 24 30 00 00 	movq   $0x0,0x30(%rsp)
  401b13:	00 00 
  401b15:	48 c7 44 24 28 e8 03 	movq   $0x3e8,0x28(%rsp)
  401b1c:	00 00 
  401b1e:	48 0f af c6          	imul   %rsi,%rax
  401b22:	48 d1 f8             	sar    %rax
  401b25:	48 01 c3             	add    %rax,%rbx
  401b28:	48 39 d3             	cmp    %rdx,%rbx
  401b2b:	0f 8f af 0e 00 00    	jg     4029e0 <main+0x1e80>
  401b31:	0f 1f 44 00 00       	nopl   0x0(%rax,%rax,1)
  401b36:	66 2e 0f 1f 84 00 00 	nopw   %cs:0x0(%rax,%rax,1)
  401b3d:	00 00 00 
  401b40:	48 8b 05 21 58 20 00 	mov    0x205821(%rip),%rax        # 607368 <net+0x248>
  401b47:	48 89 44 24 60       	mov    %rax,0x60(%rsp)
  401b4c:	48 85 c0             	test   %rax,%rax
  401b4f:	0f 84 cf 10 00 00    	je     402c24 <main+0x20c4>
  401b55:	48 8b 1d 64 57 20 00 	mov    0x205764(%rip),%rbx        # 6072c0 <net+0x1a0>
  401b5c:	be 08 00 00 00       	mov    $0x8,%esi
  401b61:	49 c7 06 00 00 00 00 	movq   $0x0,(%r14)
  401b68:	4c 8b 3d 71 57 20 00 	mov    0x205771(%rip),%r15        # 6072e0 <net+0x1c0>
  401b6f:	48 89 5c 24 48       	mov    %rbx,0x48(%rsp)
  401b74:	48 8b 5c 24 10       	mov    0x10(%rsp),%rbx
  401b79:	4c 89 ff             	mov    %r15,%rdi
  401b7c:	48 89 03             	mov    %rax,(%rbx)
  401b7f:	48 8b 44 24 40       	mov    0x40(%rsp),%rax
  401b84:	48 8b 1d d5 57 20 00 	mov    0x2057d5(%rip),%rbx        # 607360 <net+0x240>
  401b8b:	48 c7 00 00 00 00 00 	movq   $0x0,(%rax)
  401b92:	e8 c9 ee ff ff       	callq  400a60 <calloc@plt>
  401b97:	48 8b 74 24 58       	mov    0x58(%rsp),%rsi
  401b9c:	48 89 44 24 08       	mov    %rax,0x8(%rsp)
  401ba1:	48 89 06             	mov    %rax,(%rsi)
  401ba4:	4d 85 ff             	test   %r15,%r15
  401ba7:	0f 8e 37 01 00 00    	jle    401ce4 <main+0x1184>
  401bad:	49 83 ff 01          	cmp    $0x1,%r15
  401bb1:	0f 84 09 10 00 00    	je     402bc0 <main+0x2060>
  401bb7:	4c 89 fe             	mov    %r15,%rsi
  401bba:	c4 e1 f9 6e f3       	vmovq  %rbx,%xmm6
  401bbf:	c5 c9 6c de          	vpunpcklqdq %xmm6,%xmm6,%xmm3
  401bc3:	48 d1 ee             	shr    %rsi
  401bc6:	48 83 fe 04          	cmp    $0x4,%rsi
  401bca:	0f 86 00 10 00 00    	jbe    402bd0 <main+0x2070>
  401bd0:	48 8d 4e fb          	lea    -0x5(%rsi),%rcx
  401bd4:	ba 04 00 00 00       	mov    $0x4,%edx
  401bd9:	c5 f8 28 05 9f 47 00 	vmovaps 0x479f(%rip),%xmm0        # 406380 <_IO_stdin_used+0x3a0>
  401be0:	00 
  401be1:	c5 f8 28 25 57 47 00 	vmovaps 0x4757(%rip),%xmm4        # 406340 <_IO_stdin_used+0x360>
  401be8:	00 
  401be9:	48 83 e1 fc          	and    $0xfffffffffffffffc,%rcx
  401bed:	c5 f8 28 3d 5b 47 00 	vmovaps 0x475b(%rip),%xmm7        # 406350 <_IO_stdin_used+0x370>
  401bf4:	00 
  401bf5:	c5 f8 28 35 63 47 00 	vmovaps 0x4763(%rip),%xmm6        # 406360 <_IO_stdin_used+0x380>
  401bfc:	00 
  401bfd:	48 83 c1 08          	add    $0x8,%rcx
  401c01:	c5 f8 28 2d 67 47 00 	vmovaps 0x4767(%rip),%xmm5        # 406370 <_IO_stdin_used+0x390>
  401c08:	00 
  401c09:	eb 08                	jmp    401c13 <main+0x10b3>
  401c0b:	0f 1f 44 00 00       	nopl   0x0(%rax,%rax,1)
  401c10:	48 89 fa             	mov    %rdi,%rdx
  401c13:	c5 f9 d4 15 25 47 00 	vpaddq 0x4725(%rip),%xmm0,%xmm2        # 406340 <_IO_stdin_used+0x360>
  401c1a:	00 
  401c1b:	c5 f1 73 f0 03       	vpsllq $0x3,%xmm0,%xmm1
  401c20:	c5 f1 d4 c8          	vpaddq %xmm0,%xmm1,%xmm1
  401c24:	c5 79 d4 c7          	vpaddq %xmm7,%xmm0,%xmm8
  401c28:	c5 f1 73 f1 03       	vpsllq $0x3,%xmm1,%xmm1
  401c2d:	c5 f1 d4 cb          	vpaddq %xmm3,%xmm1,%xmm1
  401c31:	48 8d 7a 04          	lea    0x4(%rdx),%rdi
  401c35:	0f 0d 88 90 01 00 00 	prefetchw 0x190(%rax)
  401c3c:	c5 f8 11 08          	vmovups %xmm1,(%rax)
  401c40:	48 83 c0 40          	add    $0x40,%rax
  401c44:	c5 f1 73 f2 03       	vpsllq $0x3,%xmm2,%xmm1
  401c49:	c5 f1 d4 ca          	vpaddq %xmm2,%xmm1,%xmm1
  401c4d:	c5 f1 73 f1 03       	vpsllq $0x3,%xmm1,%xmm1
  401c52:	c5 f1 d4 cb          	vpaddq %xmm3,%xmm1,%xmm1
  401c56:	c5 f8 11 48 d0       	vmovups %xmm1,-0x30(%rax)
  401c5b:	c5 f9 d4 ce          	vpaddq %xmm6,%xmm0,%xmm1
  401c5f:	c5 f9 d4 c5          	vpaddq %xmm5,%xmm0,%xmm0
  401c63:	c5 e9 73 f1 03       	vpsllq $0x3,%xmm1,%xmm2
  401c68:	c5 e9 d4 d1          	vpaddq %xmm1,%xmm2,%xmm2
  401c6c:	c4 c1 71 73 f0 03    	vpsllq $0x3,%xmm8,%xmm1
  401c72:	c4 c1 71 d4 c8       	vpaddq %xmm8,%xmm1,%xmm1
  401c77:	c5 e9 73 f2 03       	vpsllq $0x3,%xmm2,%xmm2
  401c7c:	c5 f1 73 f1 03       	vpsllq $0x3,%xmm1,%xmm1
  401c81:	c5 e9 d4 d3          	vpaddq %xmm3,%xmm2,%xmm2
  401c85:	c5 f1 d4 cb          	vpaddq %xmm3,%xmm1,%xmm1
  401c89:	c5 f8 11 50 e0       	vmovups %xmm2,-0x20(%rax)
  401c8e:	c5 f8 11 48 f0       	vmovups %xmm1,-0x10(%rax)
  401c93:	48 39 f9             	cmp    %rdi,%rcx
  401c96:	0f 85 74 ff ff ff    	jne    401c10 <main+0x10b0>
  401c9c:	0f 1f 40 00          	nopl   0x0(%rax)
  401ca0:	c5 f1 73 f0 03       	vpsllq $0x3,%xmm0,%xmm1
  401ca5:	c5 f1 d4 c8          	vpaddq %xmm0,%xmm1,%xmm1
  401ca9:	48 ff c2             	inc    %rdx
  401cac:	48 83 c0 10          	add    $0x10,%rax
  401cb0:	c5 f1 73 f1 03       	vpsllq $0x3,%xmm1,%xmm1
  401cb5:	c5 f1 d4 cb          	vpaddq %xmm3,%xmm1,%xmm1
  401cb9:	c5 f9 d4 c4          	vpaddq %xmm4,%xmm0,%xmm0
  401cbd:	c5 f8 11 48 f0       	vmovups %xmm1,-0x10(%rax)
  401cc2:	48 39 f2             	cmp    %rsi,%rdx
  401cc5:	72 d9                	jb     401ca0 <main+0x1140>
  401cc7:	4c 89 f8             	mov    %r15,%rax
  401cca:	48 83 e0 fe          	and    $0xfffffffffffffffe,%rax
  401cce:	49 39 c7             	cmp    %rax,%r15
  401cd1:	74 11                	je     401ce4 <main+0x1184>
  401cd3:	48 8b 74 24 08       	mov    0x8(%rsp),%rsi
  401cd8:	48 8d 14 c0          	lea    (%rax,%rax,8),%rdx
  401cdc:	48 8d 14 d3          	lea    (%rbx,%rdx,8),%rdx
  401ce0:	48 89 14 c6          	mov    %rdx,(%rsi,%rax,8)
  401ce4:	45 31 d2             	xor    %r10d,%r10d
  401ce7:	48 83 7c 24 20 00    	cmpq   $0x0,0x20(%rsp)
  401ced:	4c 8b 25 64 56 20 00 	mov    0x205664(%rip),%r12        # 607358 <net+0x238>
  401cf4:	7f 1f                	jg     401d15 <main+0x11b5>
  401cf6:	e9 f5 0e 00 00       	jmpq   402bf0 <main+0x2090>
  401cfb:	0f 1f 44 00 00       	nopl   0x0(%rax,%rax,1)
  401d00:	49 ff c2             	inc    %r10
  401d03:	49 81 c4 d8 00 00 00 	add    $0xd8,%r12
  401d0a:	4c 3b 54 24 20       	cmp    0x20(%rsp),%r10
  401d0f:	0f 84 db 0e 00 00    	je     402bf0 <main+0x2090>
  401d15:	66 41 83 7c 24 68 ff 	cmpw   $0xffff,0x68(%r12)
  401d1c:	74 e2                	je     401d00 <main+0x11a0>
  401d1e:	48 8b 44 24 18       	mov    0x18(%rsp),%rax
  401d23:	41 bd 01 00 00 00    	mov    $0x1,%r13d
  401d29:	45 31 db             	xor    %r11d,%r11d
  401d2c:	49 81 c4 f0 00 00 00 	add    $0xf0,%r12
  401d33:	45 89 e9             	mov    %r13d,%r9d
  401d36:	31 ed                	xor    %ebp,%ebp
  401d38:	48 c7 44 24 50 00 00 	movq   $0x0,0x50(%rsp)
  401d3f:	00 00 
  401d41:	48 c7 44 24 68 ff ff 	movq   $0xffffffffffffffff,0x68(%rsp)
  401d48:	ff ff 
  401d4a:	48 c7 04 24 00 00 00 	movq   $0x0,(%rsp)
  401d51:	00 
  401d52:	4c 89 54 24 38       	mov    %r10,0x38(%rsp)
  401d57:	4d 89 dd             	mov    %r11,%r13
  401d5a:	48 83 e8 0f          	sub    $0xf,%rax
  401d5e:	48 89 84 24 88 00 00 	mov    %rax,0x88(%rsp)
  401d65:	00 
  401d66:	66 2e 0f 1f 84 00 00 	nopw   %cs:0x0(%rax,%rax,1)
  401d6d:	00 00 00 
  401d70:	48 8b 44 24 38       	mov    0x38(%rsp),%rax
  401d75:	48 99                	cqto   
  401d77:	48 f7 7c 24 28       	idivq  0x28(%rsp)
  401d7c:	66 45 85 c9          	test   %r9w,%r9w
  401d80:	0f 84 5a 0b 00 00    	je     4028e0 <main+0x1d80>
  401d86:	66 41 83 bc 24 78 ff 	cmpw   $0xffff,-0x88(%r12)
  401d8d:	ff ff ff 
  401d90:	41 0f 18 4c 24 50    	prefetcht0 0x50(%r12)
  401d96:	74 35                	je     401dcd <main+0x126d>
  401d98:	be 10 00 00 00       	mov    $0x10,%esi
  401d9d:	bf 01 00 00 00       	mov    $0x1,%edi
  401da2:	44 89 4c 24 18       	mov    %r9d,0x18(%rsp)
  401da7:	e8 b4 ec ff ff       	callq  400a60 <calloc@plt>
  401dac:	49 8d 94 24 58 ff ff 	lea    -0xa8(%r12),%rdx
  401db3:	ff 
  401db4:	48 8b 34 24          	mov    (%rsp),%rsi
  401db8:	48 ff 44 24 68       	incq   0x68(%rsp)
  401dbd:	48 89 10             	mov    %rdx,(%rax)
  401dc0:	48 89 04 24          	mov    %rax,(%rsp)
  401dc4:	44 8b 4c 24 18       	mov    0x18(%rsp),%r9d
  401dc9:	48 89 70 08          	mov    %rsi,0x8(%rax)
  401dcd:	66 41 83 bc 24 30 ff 	cmpw   $0xffff,-0xd0(%r12)
  401dd4:	ff ff ff 
  401dd7:	41 0f 18 4c 24 08    	prefetcht0 0x8(%r12)
  401ddd:	48 89 6c 24 18       	mov    %rbp,0x18(%rsp)
  401de2:	0f 84 18 01 00 00    	je     401f00 <main+0x13a0>
  401de8:	4d 8b 84 24 28 ff ff 	mov    -0xd8(%r12),%r8
  401def:	ff 
  401df0:	41 0f 18 0c 24       	prefetcht0 (%r12)
  401df5:	49 63 40 64          	movslq 0x64(%r8),%rax
  401df9:	49 2b 84 24 50 ff ff 	sub    -0xb0(%r12),%rax
  401e00:	ff 
  401e01:	48 03 84 24 88 00 00 	add    0x88(%rsp),%rax
  401e08:	00 
  401e09:	48 89 44 24 78       	mov    %rax,0x78(%rsp)
  401e0e:	48 8b 04 24          	mov    (%rsp),%rax
  401e12:	48 8b 70 08          	mov    0x8(%rax),%rsi
  401e16:	48 85 f6             	test   %rsi,%rsi
  401e19:	0f 84 eb 00 00 00    	je     401f0a <main+0x13aa>
  401e1f:	48 8b 44 24 50       	mov    0x50(%rsp),%rax
  401e24:	eb 1f                	jmp    401e45 <main+0x12e5>
  401e26:	66 2e 0f 1f 84 00 00 	nopw   %cs:0x0(%rax,%rax,1)
  401e2d:	00 00 00 
  401e30:	48 8b 76 08          	mov    0x8(%rsi),%rsi
  401e34:	48 8b 84 24 80 00 00 	mov    0x80(%rsp),%rax
  401e3b:	00 
  401e3c:	48 85 f6             	test   %rsi,%rsi
  401e3f:	0f 84 c5 00 00 00    	je     401f0a <main+0x13aa>
  401e45:	48 8b 0e             	mov    (%rsi),%rcx
  401e48:	48 8d 78 01          	lea    0x1(%rax),%rdi
  401e4c:	48 89 6c 24 18       	mov    %rbp,0x18(%rsp)
  401e51:	48 89 bc 24 80 00 00 	mov    %rdi,0x80(%rsp)
  401e58:	00 
  401e59:	48 89 7c 24 50       	mov    %rdi,0x50(%rsp)
  401e5e:	c5 fa 7e 41 10       	vmovq  0x10(%rcx),%xmm0
  401e63:	c4 e1 f9 7e c7       	vmovq  %xmm0,%rdi
  401e68:	48 63 57 64          	movslq 0x64(%rdi),%rdx
  401e6c:	48 03 51 40          	add    0x40(%rcx),%rdx
  401e70:	48 39 54 24 78       	cmp    %rdx,0x78(%rsp)
  401e75:	7c b9                	jl     401e30 <main+0x12d0>
  401e77:	ba 1e 00 00 00       	mov    $0x1e,%edx
  401e7c:	48 2b 17             	sub    (%rdi),%rdx
  401e7f:	49 03 10             	add    (%r8),%rdx
  401e82:	79 ac                	jns    401e30 <main+0x12d0>
  401e84:	49 39 ef             	cmp    %rbp,%r15
  401e87:	0f 8f 83 07 00 00    	jg     402610 <main+0x1ab0>
  401e8d:	49 8b 0e             	mov    (%r14),%rcx
  401e90:	48 3b 53 38          	cmp    0x38(%rbx),%rdx
  401e94:	0f 8c 16 06 00 00    	jl     4024b0 <main+0x1950>
  401e9a:	48 8d 79 01          	lea    0x1(%rcx),%rdi
  401e9e:	48 8d 0c c9          	lea    (%rcx,%rcx,8),%rcx
  401ea2:	c4 c3 f9 22 c0 01    	vpinsrq $0x1,%r8,%xmm0,%xmm0
  401ea8:	49 ff c5             	inc    %r13
  401eab:	49 89 3e             	mov    %rdi,(%r14)
  401eae:	48 8b 7c 24 10       	mov    0x10(%rsp),%rdi
  401eb3:	48 c1 e1 03          	shl    $0x3,%rcx
  401eb7:	48 03 0f             	add    (%rdi),%rcx
  401eba:	c5 f8 11 41 10       	vmovups %xmm0,0x10(%rcx)
  401ebf:	48 c7 41 40 1e 00 00 	movq   $0x1e,0x40(%rcx)
  401ec6:	00 
  401ec7:	48 c7 41 08 1e 00 00 	movq   $0x1e,0x8(%rcx)
  401ece:	00 
  401ecf:	48 89 51 38          	mov    %rdx,0x38(%rcx)
  401ed3:	89 01                	mov    %eax,(%rcx)
  401ed5:	49 8b 06             	mov    (%r14),%rax
  401ed8:	0f 1f 84 00 00 00 00 	nopl   0x0(%rax,%rax,1)
  401edf:	00 
  401ee0:	48 39 44 24 48       	cmp    %rax,0x48(%rsp)
  401ee5:	0f 85 45 ff ff ff    	jne    401e30 <main+0x12d0>
  401eeb:	49 c7 06 00 00 00 00 	movq   $0x0,(%r14)
  401ef2:	e9 39 ff ff ff       	jmpq   401e30 <main+0x12d0>
  401ef7:	66 0f 1f 84 00 00 00 	nopw   0x0(%rax,%rax,1)
  401efe:	00 00 
  401f00:	48 8b 74 24 68       	mov    0x68(%rsp),%rsi
  401f05:	48 01 74 24 50       	add    %rsi,0x50(%rsp)
  401f0a:	48 ff 44 24 38       	incq   0x38(%rsp)
  401f0f:	49 81 c4 d8 00 00 00 	add    $0xd8,%r12
  401f16:	48 8b 44 24 38       	mov    0x38(%rsp),%rax
  401f1b:	48 3b 44 24 20       	cmp    0x20(%rsp),%rax
  401f20:	0f 8c 4a fe ff ff    	jl     401d70 <main+0x1210>
  401f26:	4d 89 eb             	mov    %r13,%r11
  401f29:	48 85 ed             	test   %rbp,%rbp
  401f2c:	4d 89 1e             	mov    %r11,(%r14)
  401f2f:	41 0f 9f c4          	setg   %r12b
  401f33:	66 45 85 c9          	test   %r9w,%r9w
  401f37:	75 24                	jne    401f5d <main+0x13fd>
  401f39:	0f 1f 80 00 00 00 00 	nopl   0x0(%rax)
  401f40:	4c 8b 44 24 48       	mov    0x48(%rsp),%r8
  401f45:	4c 89 f9             	mov    %r15,%rcx
  401f48:	48 89 da             	mov    %rbx,%rdx
  401f4b:	4c 89 f7             	mov    %r14,%rdi
  401f4e:	48 8b 74 24 10       	mov    0x10(%rsp),%rsi
  401f53:	e8 78 34 00 00       	callq  4053d0 <switch_arcs.constprop.17>
  401f58:	48 85 c0             	test   %rax,%rax
  401f5b:	75 e3                	jne    401f40 <main+0x13e0>
  401f5d:	48 8b 04 24          	mov    (%rsp),%rax
  401f61:	48 8b 58 08          	mov    0x8(%rax),%rbx
  401f65:	48 89 c7             	mov    %rax,%rdi
  401f68:	48 85 db             	test   %rbx,%rbx
  401f6b:	75 06                	jne    401f73 <main+0x1413>
  401f6d:	eb 19                	jmp    401f88 <main+0x1428>
  401f6f:	90                   	nop
  401f70:	48 89 c3             	mov    %rax,%rbx
  401f73:	e8 f8 ea ff ff       	callq  400a70 <free@plt>
  401f78:	48 8b 43 08          	mov    0x8(%rbx),%rax
  401f7c:	48 89 df             	mov    %rbx,%rdi
  401f7f:	48 85 c0             	test   %rax,%rax
  401f82:	75 ec                	jne    401f70 <main+0x1410>
  401f84:	48 89 1c 24          	mov    %rbx,(%rsp)
  401f88:	e8 e3 ea ff ff       	callq  400a70 <free@plt>
  401f8d:	48 8b 74 24 18       	mov    0x18(%rsp),%rsi
  401f92:	48 8b 7c 24 08       	mov    0x8(%rsp),%rdi
  401f97:	e8 04 23 00 00       	callq  4042a0 <spec_qsort.constprop.18>
  401f9c:	bf 08 00 00 00       	mov    $0x8,%edi
  401fa1:	e8 aa eb ff ff       	callq  400b50 <malloc@plt>
  401fa6:	bf 08 00 00 00       	mov    $0x8,%edi
  401fab:	48 89 04 24          	mov    %rax,(%rsp)
  401faf:	e8 9c eb ff ff       	callq  400b50 <malloc@plt>
  401fb4:	48 81 3d f9 52 20 00 	cmpq   $0x3a98,0x2052f9(%rip)        # 6072b8 <net+0x198>
  401fbb:	98 3a 00 00 
  401fbf:	49 89 c7             	mov    %rax,%r15
  401fc2:	4c 8b 0c 24          	mov    (%rsp),%r9
  401fc6:	48 8b 05 13 53 20 00 	mov    0x205313(%rip),%rax        # 6072e0 <net+0x1c0>
  401fcd:	0f 8f 3d 07 00 00    	jg     402710 <main+0x1bb0>
  401fd3:	48 2d 40 42 0f 00    	sub    $0xf4240,%rax
  401fd9:	48 8b 5c 24 08       	mov    0x8(%rsp),%rbx
  401fde:	49 c7 07 00 00 00 00 	movq   $0x0,(%r15)
  401fe5:	4c 8b 2d dc 52 20 00 	mov    0x2052dc(%rip),%r13        # 6072c8 <net+0x1a8>
  401fec:	49 89 19             	mov    %rbx,(%r9)
  401fef:	48 85 c0             	test   %rax,%rax
  401ff2:	0f 8e 58 04 00 00    	jle    402450 <main+0x18f0>
  401ff8:	41 83 e4 01          	and    $0x1,%r12d
  401ffc:	0f 84 4e 04 00 00    	je     402450 <main+0x18f0>
  402002:	48 85 ed             	test   %rbp,%rbp
  402005:	0f 84 87 04 00 00    	je     402492 <main+0x1932>
  40200b:	48 8b 13             	mov    (%rbx),%rdx
  40200e:	48 39 e8             	cmp    %rbp,%rax
  402011:	49 8d 4d 01          	lea    0x1(%r13),%rcx
  402015:	49 c7 07 01 00 00 00 	movq   $0x1,(%r15)
  40201c:	48 0f 4f c5          	cmovg  %rbp,%rax
  402020:	44 89 2a             	mov    %r13d,(%rdx)
  402023:	48 c7 42 38 01 00 00 	movq   $0x1,0x38(%rdx)
  40202a:	00 
  40202b:	48 8d 53 08          	lea    0x8(%rbx),%rdx
  40202f:	bb 01 00 00 00       	mov    $0x1,%ebx
  402034:	49 89 11             	mov    %rdx,(%r9)
  402037:	48 83 f8 01          	cmp    $0x1,%rax
  40203b:	0f 85 1f 04 00 00    	jne    402460 <main+0x1900>
  402041:	4c 8b 2d 80 52 20 00 	mov    0x205280(%rip),%r13        # 6072c8 <net+0x1a8>
  402048:	49 8d 7c 1d 00       	lea    0x0(%r13,%rbx,1),%rdi
  40204d:	4c 8d 47 ff          	lea    -0x1(%rdi),%r8
  402051:	48 b9 cf f7 53 e3 a5 	movabs $0x20c49ba5e353f7cf,%rcx
  402058:	9b c4 20 
  40205b:	48 c7 05 3a 53 20 00 	movq   $0xfa0,0x20533a(%rip)        # 6073a0 <net+0x280>
  402062:	a0 0f 00 00 
  402066:	4c 89 c0             	mov    %r8,%rax
  402069:	49 c1 f8 3f          	sar    $0x3f,%r8
  40206d:	48 f7 e9             	imul   %rcx
  402070:	48 89 f8             	mov    %rdi,%rax
  402073:	48 c1 fa 09          	sar    $0x9,%rdx
  402077:	4c 29 c2             	sub    %r8,%rdx
  40207a:	48 8d 72 01          	lea    0x1(%rdx),%rsi
  40207e:	48 f7 e9             	imul   %rcx
  402081:	48 89 f8             	mov    %rdi,%rax
  402084:	48 c1 f8 3f          	sar    $0x3f,%rax
  402088:	48 89 35 01 53 20 00 	mov    %rsi,0x205301(%rip)        # 607390 <net+0x270>
  40208f:	48 c1 fa 09          	sar    $0x9,%rdx
  402093:	48 29 c2             	sub    %rax,%rdx
  402096:	48 89 f0             	mov    %rsi,%rax
  402099:	48 69 d2 a0 0f 00 00 	imul   $0xfa0,%rdx,%rdx
  4020a0:	48 29 d7             	sub    %rdx,%rdi
  4020a3:	48 89 fa             	mov    %rdi,%rdx
  4020a6:	74 08                	je     4020b0 <main+0x1550>
  4020a8:	48 8d 84 16 60 f0 ff 	lea    -0xfa0(%rsi,%rdx,1),%rax
  4020af:	ff 
  4020b0:	48 89 05 e1 52 20 00 	mov    %rax,0x2052e1(%rip)        # 607398 <net+0x278>
  4020b7:	48 85 c0             	test   %rax,%rax
  4020ba:	79 2f                	jns    4020eb <main+0x158b>
  4020bc:	ba a0 0f 00 00       	mov    $0xfa0,%edx
  4020c1:	0f 1f 44 00 00       	nopl   0x0(%rax,%rax,1)
  4020c6:	66 2e 0f 1f 84 00 00 	nopw   %cs:0x0(%rax,%rax,1)
  4020cd:	00 00 00 
  4020d0:	48 ff ca             	dec    %rdx
  4020d3:	48 01 f0             	add    %rsi,%rax
  4020d6:	78 f8                	js     4020d0 <main+0x1570>
  4020d8:	c4 e1 f9 6e f0       	vmovq  %rax,%xmm6
  4020dd:	c4 e3 c9 22 c2 01    	vpinsrq $0x1,%rdx,%xmm6,%xmm0
  4020e3:	c5 f8 11 05 ad 52 20 	vmovups %xmm0,0x2052ad(%rip)        # 607398 <net+0x278>
  4020ea:	00 
  4020eb:	4c 89 cf             	mov    %r9,%rdi
  4020ee:	e8 7d e9 ff ff       	callq  400a70 <free@plt>
  4020f3:	4c 89 ff             	mov    %r15,%rdi
  4020f6:	e8 75 e9 ff ff       	callq  400a70 <free@plt>
  4020fb:	48 8b 7c 24 08       	mov    0x8(%rsp),%rdi
  402100:	e8 6b e9 ff ff       	callq  400a70 <free@plt>
  402105:	48 85 ed             	test   %rbp,%rbp
  402108:	0f 84 09 01 00 00    	je     402217 <main+0x16b7>
  40210e:	48 8b 44 24 18       	mov    0x18(%rsp),%rax
  402113:	48 83 7c 24 30 00    	cmpq   $0x0,0x30(%rsp)
  402119:	48 8b 0d 40 52 20 00 	mov    0x205240(%rip),%rcx        # 607360 <net+0x240>
  402120:	48 8d 04 c0          	lea    (%rax,%rax,8),%rax
  402124:	48 8d 34 c1          	lea    (%rcx,%rax,8),%rsi
  402128:	0f 85 62 02 00 00    	jne    402390 <main+0x1830>
  40212e:	48 39 f1             	cmp    %rsi,%rcx
  402131:	75 1a                	jne    40214d <main+0x15ed>
  402133:	e9 df 00 00 00       	jmpq   402217 <main+0x16b7>
  402138:	0f 1f 84 00 00 00 00 	nopl   0x0(%rax,%rax,1)
  40213f:	00 
  402140:	48 83 c1 48          	add    $0x48,%rcx
  402144:	48 39 ce             	cmp    %rcx,%rsi
  402147:	0f 84 c3 00 00 00    	je     402210 <main+0x16b0>
  40214d:	48 83 79 38 01       	cmpq   $0x1,0x38(%rcx)
  402152:	75 ec                	jne    402140 <main+0x15e0>
  402154:	48 8b 41 10          	mov    0x10(%rcx),%rax
  402158:	48 c7 41 38 00 00 00 	movq   $0x0,0x38(%rcx)
  40215f:	00 
  402160:	66 c7 41 20 01 00    	movw   $0x1,0x20(%rcx)
  402166:	48 8b 50 38          	mov    0x38(%rax),%rdx
  40216a:	48 89 51 28          	mov    %rdx,0x28(%rcx)
  40216e:	48 89 48 38          	mov    %rcx,0x38(%rax)
  402172:	48 8b 41 18          	mov    0x18(%rcx),%rax
  402176:	48 8b 50 40          	mov    0x40(%rax),%rdx
  40217a:	48 89 51 30          	mov    %rdx,0x30(%rcx)
  40217e:	48 89 48 40          	mov    %rcx,0x40(%rax)
  402182:	48 63 01             	movslq (%rcx),%rax
  402185:	48 8b 3d 0c 52 20 00 	mov    0x20520c(%rip),%rdi        # 607398 <net+0x278>
  40218c:	48 99                	cqto   
  40218e:	48 f7 3d fb 51 20 00 	idivq  0x2051fb(%rip)        # 607390 <net+0x270>
  402195:	48 39 fa             	cmp    %rdi,%rdx
  402198:	0f 8e 62 05 00 00    	jle    402700 <main+0x1ba0>
  40219e:	4c 8b 05 fb 51 20 00 	mov    0x2051fb(%rip),%r8        # 6073a0 <net+0x280>
  4021a5:	48 29 fa             	sub    %rdi,%rdx
  4021a8:	4d 8d 48 ff          	lea    -0x1(%r8),%r9
  4021ac:	49 0f af f8          	imul   %r8,%rdi
  4021b0:	49 0f af d1          	imul   %r9,%rdx
  4021b4:	48 01 fa             	add    %rdi,%rdx
  4021b7:	48 01 c2             	add    %rax,%rdx
  4021ba:	c5 f8 10 31          	vmovups (%rcx),%xmm6
  4021be:	48 8b 7c 24 60       	mov    0x60(%rsp),%rdi
  4021c3:	48 8d 04 d2          	lea    (%rdx,%rdx,8),%rax
  4021c7:	48 83 c1 48          	add    $0x48,%rcx
  4021cb:	48 8d 04 c7          	lea    (%rdi,%rax,8),%rax
  4021cf:	c5 f8 11 30          	vmovups %xmm6,(%rax)
  4021d3:	c5 f8 10 79 c8       	vmovups -0x38(%rcx),%xmm7
  4021d8:	c5 f8 11 78 10       	vmovups %xmm7,0x10(%rax)
  4021dd:	c5 f8 10 61 d8       	vmovups -0x28(%rcx),%xmm4
  4021e2:	c5 f8 11 60 20       	vmovups %xmm4,0x20(%rax)
  4021e7:	c5 f8 10 59 e8       	vmovups -0x18(%rcx),%xmm3
  4021ec:	c5 f8 11 58 30       	vmovups %xmm3,0x30(%rax)
  4021f1:	48 8b 51 f8          	mov    -0x8(%rcx),%rdx
  4021f5:	48 89 50 40          	mov    %rdx,0x40(%rax)
  4021f9:	48 39 ce             	cmp    %rcx,%rsi
  4021fc:	0f 85 4b ff ff ff    	jne    40214d <main+0x15ed>
  402202:	0f 1f 40 00          	nopl   0x0(%rax)
  402206:	66 2e 0f 1f 84 00 00 	nopw   %cs:0x0(%rax,%rax,1)
  40220d:	00 00 00 
  402210:	4c 8b 2d b1 50 20 00 	mov    0x2050b1(%rip),%r13        # 6072c8 <net+0x1a8>
  402217:	c5 f8 10 35 b9 50 20 	vmovups 0x2050b9(%rip),%xmm6        # 6072d8 <net+0x1b8>
  40221e:	00 
  40221f:	c4 e1 f9 6e eb       	vmovq  %rbx,%xmm5
  402224:	c5 d1 6c c5          	vpunpcklqdq %xmm5,%xmm5,%xmm0
  402228:	c5 f9 d4 0d a8 50 20 	vpaddq 0x2050a8(%rip),%xmm0,%xmm1        # 6072d8 <net+0x1b8>
  40222f:	00 
  402230:	45 31 c0             	xor    %r8d,%r8d
  402233:	31 ff                	xor    %edi,%edi
  402235:	48 83 3d 73 50 20 00 	cmpq   $0x0,0x205073(%rip)        # 6072b0 <net+0x190>
  40223c:	00 
  40223d:	48 8b 0d 24 51 20 00 	mov    0x205124(%rip),%rcx        # 607368 <net+0x248>
  402244:	c5 c9 fb c0          	vpsubq %xmm0,%xmm6,%xmm0
  402248:	c5 f1 c6 c0 02       	vshufpd $0x2,%xmm0,%xmm1,%xmm0
  40224d:	c5 f8 11 05 83 50 20 	vmovups %xmm0,0x205083(%rip)        # 6072d8 <net+0x1b8>
  402254:	00 
  402255:	0f 89 df 00 00 00    	jns    40233a <main+0x17da>
  40225b:	e9 d0 04 00 00       	jmpq   402730 <main+0x1bd0>
  402260:	4c 29 d2             	sub    %r10,%rdx
  402263:	4d 0f af d3          	imul   %r11,%r10
  402267:	49 8d 73 ff          	lea    -0x1(%r11),%rsi
  40226b:	48 0f af f2          	imul   %rdx,%rsi
  40226f:	4a 8d 14 16          	lea    (%rsi,%r10,1),%rdx
  402273:	48 01 c2             	add    %rax,%rdx
  402276:	48 8d 04 d2          	lea    (%rdx,%rdx,8),%rax
  40227a:	48 8d 04 c1          	lea    (%rcx,%rax,8),%rax
  40227e:	49 89 41 30          	mov    %rax,0x30(%r9)
  402282:	49 8b 41 40          	mov    0x40(%r9),%rax
  402286:	48 85 c0             	test   %rax,%rax
  402289:	74 49                	je     4022d4 <main+0x1774>
  40228b:	48 63 00             	movslq (%rax),%rax
  40228e:	85 c0                	test   %eax,%eax
  402290:	78 42                	js     4022d4 <main+0x1774>
  402292:	48 99                	cqto   
  402294:	4c 8b 15 fd 50 20 00 	mov    0x2050fd(%rip),%r10        # 607398 <net+0x278>
  40229b:	4c 8b 1d fe 50 20 00 	mov    0x2050fe(%rip),%r11        # 6073a0 <net+0x280>
  4022a2:	48 f7 3d e7 50 20 00 	idivq  0x2050e7(%rip)        # 607390 <net+0x270>
  4022a9:	4c 39 d2             	cmp    %r10,%rdx
  4022ac:	0f 8e 3e 05 00 00    	jle    4027f0 <main+0x1c90>
  4022b2:	4c 29 d2             	sub    %r10,%rdx
  4022b5:	4d 0f af d3          	imul   %r11,%r10
  4022b9:	49 8d 73 ff          	lea    -0x1(%r11),%rsi
  4022bd:	48 0f af f2          	imul   %rdx,%rsi
  4022c1:	4a 8d 14 16          	lea    (%rsi,%r10,1),%rdx
  4022c5:	48 01 c2             	add    %rax,%rdx
  4022c8:	48 8d 04 d2          	lea    (%rdx,%rdx,8),%rax
  4022cc:	48 8d 04 c1          	lea    (%rcx,%rax,8),%rax
  4022d0:	49 89 41 40          	mov    %rax,0x40(%r9)
  4022d4:	49 8b 41 38          	mov    0x38(%r9),%rax
  4022d8:	48 85 c0             	test   %rax,%rax
  4022db:	74 49                	je     402326 <main+0x17c6>
  4022dd:	48 63 00             	movslq (%rax),%rax
  4022e0:	85 c0                	test   %eax,%eax
  4022e2:	78 42                	js     402326 <main+0x17c6>
  4022e4:	48 99                	cqto   
  4022e6:	4c 8b 15 ab 50 20 00 	mov    0x2050ab(%rip),%r10        # 607398 <net+0x278>
  4022ed:	4c 8b 1d ac 50 20 00 	mov    0x2050ac(%rip),%r11        # 6073a0 <net+0x280>
  4022f4:	48 f7 3d 95 50 20 00 	idivq  0x205095(%rip)        # 607390 <net+0x270>
  4022fb:	4c 39 d2             	cmp    %r10,%rdx
  4022fe:	0f 8e 9c 01 00 00    	jle    4024a0 <main+0x1940>
  402304:	4c 29 d2             	sub    %r10,%rdx
  402307:	4d 0f af d3          	imul   %r11,%r10
  40230b:	49 8d 73 ff          	lea    -0x1(%r11),%rsi
  40230f:	48 0f af f2          	imul   %rdx,%rsi
  402313:	4a 8d 14 16          	lea    (%rsi,%r10,1),%rdx
  402317:	48 01 c2             	add    %rax,%rdx
  40231a:	48 8d 04 d2          	lea    (%rdx,%rdx,8),%rax
  40231e:	48 8d 04 c1          	lea    (%rcx,%rax,8),%rax
  402322:	49 89 41 38          	mov    %rax,0x38(%r9)
  402326:	48 ff c7             	inc    %rdi
  402329:	49 83 c0 68          	add    $0x68,%r8
  40232d:	48 3b 3d 7c 4f 20 00 	cmp    0x204f7c(%rip),%rdi        # 6072b0 <net+0x190>
  402334:	0f 8f f6 03 00 00    	jg     402730 <main+0x1bd0>
  40233a:	4c 8b 0d 07 50 20 00 	mov    0x205007(%rip),%r9        # 607348 <net+0x228>
  402341:	4d 01 c1             	add    %r8,%r9
  402344:	49 8b 41 30          	mov    0x30(%r9),%rax
  402348:	48 85 c0             	test   %rax,%rax
  40234b:	0f 84 31 ff ff ff    	je     402282 <main+0x1722>
  402351:	48 63 00             	movslq (%rax),%rax
  402354:	85 c0                	test   %eax,%eax
  402356:	0f 88 26 ff ff ff    	js     402282 <main+0x1722>
  40235c:	48 99                	cqto   
  40235e:	4c 8b 15 33 50 20 00 	mov    0x205033(%rip),%r10        # 607398 <net+0x278>
  402365:	4c 8b 1d 34 50 20 00 	mov    0x205034(%rip),%r11        # 6073a0 <net+0x280>
  40236c:	48 f7 3d 1d 50 20 00 	idivq  0x20501d(%rip)        # 607390 <net+0x270>
  402373:	4c 39 d2             	cmp    %r10,%rdx
  402376:	0f 8f e4 fe ff ff    	jg     402260 <main+0x1700>
  40237c:	49 0f af d3          	imul   %r11,%rdx
  402380:	48 01 c2             	add    %rax,%rdx
  402383:	e9 ee fe ff ff       	jmpq   402276 <main+0x1716>
  402388:	0f 1f 84 00 00 00 00 	nopl   0x0(%rax,%rax,1)
  40238f:	00 
  402390:	48 39 f1             	cmp    %rsi,%rcx
  402393:	75 18                	jne    4023ad <main+0x184d>
  402395:	e9 7d fe ff ff       	jmpq   402217 <main+0x16b7>
  40239a:	66 0f 1f 44 00 00    	nopw   0x0(%rax,%rax,1)
  4023a0:	48 83 c1 48          	add    $0x48,%rcx
  4023a4:	48 39 ce             	cmp    %rcx,%rsi
  4023a7:	0f 84 63 fe ff ff    	je     402210 <main+0x16b0>
  4023ad:	48 83 79 38 01       	cmpq   $0x1,0x38(%rcx)
  4023b2:	0f 18 89 58 01 00 00 	prefetcht0 0x158(%rcx)
  4023b9:	75 e5                	jne    4023a0 <main+0x1840>
  4023bb:	48 63 01             	movslq (%rcx),%rax
  4023be:	48 c7 41 38 00 00 00 	movq   $0x0,0x38(%rcx)
  4023c5:	00 
  4023c6:	66 c7 41 20 01 00    	movw   $0x1,0x20(%rcx)
  4023cc:	48 8b 3d c5 4f 20 00 	mov    0x204fc5(%rip),%rdi        # 607398 <net+0x278>
  4023d3:	0f 0d 89 40 01 00 00 	prefetchw 0x140(%rcx)
  4023da:	0f 18 89 20 01 00 00 	prefetcht0 0x120(%rcx)
  4023e1:	48 99                	cqto   
  4023e3:	48 f7 3d a6 4f 20 00 	idivq  0x204fa6(%rip)        # 607390 <net+0x270>
  4023ea:	48 39 fa             	cmp    %rdi,%rdx
  4023ed:	0f 8e 2d 03 00 00    	jle    402720 <main+0x1bc0>
  4023f3:	4c 8b 05 a6 4f 20 00 	mov    0x204fa6(%rip),%r8        # 6073a0 <net+0x280>
  4023fa:	48 29 fa             	sub    %rdi,%rdx
  4023fd:	4d 8d 48 ff          	lea    -0x1(%r8),%r9
  402401:	49 0f af f8          	imul   %r8,%rdi
  402405:	49 0f af d1          	imul   %r9,%rdx
  402409:	48 01 fa             	add    %rdi,%rdx
  40240c:	48 01 c2             	add    %rax,%rdx
  40240f:	c5 f8 10 39          	vmovups (%rcx),%xmm7
  402413:	48 8b 7c 24 60       	mov    0x60(%rsp),%rdi
  402418:	48 8d 04 d2          	lea    (%rdx,%rdx,8),%rax
  40241c:	48 8d 04 c7          	lea    (%rdi,%rax,8),%rax
  402420:	c5 f8 11 38          	vmovups %xmm7,(%rax)
  402424:	c5 f8 10 61 10       	vmovups 0x10(%rcx),%xmm4
  402429:	c5 f8 11 60 10       	vmovups %xmm4,0x10(%rax)
  40242e:	c5 f8 10 59 20       	vmovups 0x20(%rcx),%xmm3
  402433:	c5 f8 11 58 20       	vmovups %xmm3,0x20(%rax)
  402438:	c5 f8 10 69 30       	vmovups 0x30(%rcx),%xmm5
  40243d:	c5 f8 11 68 30       	vmovups %xmm5,0x30(%rax)
  402442:	48 8b 51 40          	mov    0x40(%rcx),%rdx
  402446:	48 89 50 40          	mov    %rdx,0x40(%rax)
  40244a:	e9 51 ff ff ff       	jmpq   4023a0 <main+0x1840>
  40244f:	90                   	nop
  402450:	4c 89 ef             	mov    %r13,%rdi
  402453:	31 db                	xor    %ebx,%ebx
  402455:	e9 f3 fb ff ff       	jmpq   40204d <main+0x14ed>
  40245a:	66 0f 1f 44 00 00    	nopw   0x0(%rax,%rax,1)
  402460:	ff c9                	dec    %ecx
  402462:	48 39 dd             	cmp    %rbx,%rbp
  402465:	74 2b                	je     402492 <main+0x1932>
  402467:	48 8b 32             	mov    (%rdx),%rsi
  40246a:	8d 3c 19             	lea    (%rcx,%rbx,1),%edi
  40246d:	48 83 c2 08          	add    $0x8,%rdx
  402471:	48 ff c3             	inc    %rbx
  402474:	49 89 11             	mov    %rdx,(%r9)
  402477:	49 89 1f             	mov    %rbx,(%r15)
  40247a:	89 3e                	mov    %edi,(%rsi)
  40247c:	48 c7 46 38 01 00 00 	movq   $0x1,0x38(%rsi)
  402483:	00 
  402484:	48 39 c3             	cmp    %rax,%rbx
  402487:	0f 8d b4 fb ff ff    	jge    402041 <main+0x14e1>
  40248d:	48 39 dd             	cmp    %rbx,%rbp
  402490:	75 d5                	jne    402467 <main+0x1907>
  402492:	c7 04 25 00 00 00 00 	movl   $0x0,0x0
  402499:	00 00 00 00 
  40249d:	0f 0b                	ud2    
  40249f:	90                   	nop
  4024a0:	49 0f af d3          	imul   %r11,%rdx
  4024a4:	48 01 c2             	add    %rax,%rdx
  4024a7:	e9 6e fe ff ff       	jmpq   40231a <main+0x17ba>
  4024ac:	0f 1f 40 00          	nopl   0x0(%rax)
  4024b0:	48 8b 7c 24 10       	mov    0x10(%rsp),%rdi
  4024b5:	c5 f8 10 3b          	vmovups (%rbx),%xmm7
  4024b9:	48 8d 0c c9          	lea    (%rcx,%rcx,8),%rcx
  4024bd:	49 ff c5             	inc    %r13
  4024c0:	48 c1 e1 03          	shl    $0x3,%rcx
  4024c4:	41 89 c3             	mov    %eax,%r11d
  4024c7:	48 03 0f             	add    (%rdi),%rcx
  4024ca:	c5 f8 11 39          	vmovups %xmm7,(%rcx)
  4024ce:	c5 f8 10 63 10       	vmovups 0x10(%rbx),%xmm4
  4024d3:	c5 f8 11 61 10       	vmovups %xmm4,0x10(%rcx)
  4024d8:	c5 f8 10 5b 20       	vmovups 0x20(%rbx),%xmm3
  4024dd:	c5 f8 11 59 20       	vmovups %xmm3,0x20(%rcx)
  4024e2:	c5 f8 10 6b 30       	vmovups 0x30(%rbx),%xmm5
  4024e7:	c5 f8 11 69 30       	vmovups %xmm5,0x30(%rcx)
  4024ec:	48 8b 7b 40          	mov    0x40(%rbx),%rdi
  4024f0:	48 89 79 40          	mov    %rdi,0x40(%rcx)
  4024f4:	49 ff 06             	incq   (%r14)
  4024f7:	bf 48 00 00 00       	mov    $0x48,%edi
  4024fc:	89 03                	mov    %eax,(%rbx)
  4024fe:	b8 90 00 00 00       	mov    $0x90,%eax
  402503:	c5 f9 d6 43 10       	vmovq  %xmm0,0x10(%rbx)
  402508:	4c 89 43 18          	mov    %r8,0x18(%rbx)
  40250c:	48 c7 43 40 1e 00 00 	movq   $0x1e,0x40(%rbx)
  402513:	00 
  402514:	48 c7 43 08 1e 00 00 	movq   $0x1e,0x8(%rbx)
  40251b:	00 
  40251c:	48 89 53 38          	mov    %rdx,0x38(%rbx)
  402520:	48 8b 8b 80 00 00 00 	mov    0x80(%rbx),%rcx
  402527:	48 3b 8b c8 00 00 00 	cmp    0xc8(%rbx),%rcx
  40252e:	48 0f 4f c7          	cmovg  %rdi,%rax
  402532:	40 0f 9e c7          	setle  %dil
  402536:	40 0f b6 ff          	movzbl %dil,%edi
  40253a:	48 83 c7 02          	add    $0x2,%rdi
  40253e:	49 39 ff             	cmp    %rdi,%r15
  402541:	0f 8c 97 00 00 00    	jl     4025de <main+0x1a7e>
  402547:	48 01 d8             	add    %rbx,%rax
  40254a:	41 b9 01 00 00 00    	mov    $0x1,%r9d
  402550:	c4 c3 f9 22 c0 01    	vpinsrq $0x1,%r8,%xmm0,%xmm0
  402556:	48 39 50 38          	cmp    %rdx,0x38(%rax)
  40255a:	0f 8e 7e 00 00 00    	jle    4025de <main+0x1a7e>
  402560:	4b 8d 0c c9          	lea    (%r9,%r9,8),%rcx
  402564:	4c 8b 48 10          	mov    0x10(%rax),%r9
  402568:	48 8d 4c cb b8       	lea    -0x48(%rbx,%rcx,8),%rcx
  40256d:	4c 89 49 10          	mov    %r9,0x10(%rcx)
  402571:	4c 8b 48 18          	mov    0x18(%rax),%r9
  402575:	4c 89 49 18          	mov    %r9,0x18(%rcx)
  402579:	4c 8b 48 08          	mov    0x8(%rax),%r9
  40257d:	4c 89 49 08          	mov    %r9,0x8(%rcx)
  402581:	4c 89 49 40          	mov    %r9,0x40(%rcx)
  402585:	4c 8b 48 38          	mov    0x38(%rax),%r9
  402589:	4c 89 49 38          	mov    %r9,0x38(%rcx)
  40258d:	44 8b 08             	mov    (%rax),%r9d
  402590:	44 89 09             	mov    %r9d,(%rcx)
  402593:	48 8d 0c 3f          	lea    (%rdi,%rdi,1),%rcx
  402597:	c5 f8 11 40 10       	vmovups %xmm0,0x10(%rax)
  40259c:	48 c7 40 08 1e 00 00 	movq   $0x1e,0x8(%rax)
  4025a3:	00 
  4025a4:	48 c7 40 40 1e 00 00 	movq   $0x1e,0x40(%rax)
  4025ab:	00 
  4025ac:	48 89 50 38          	mov    %rdx,0x38(%rax)
  4025b0:	44 89 18             	mov    %r11d,(%rax)
  4025b3:	49 39 cf             	cmp    %rcx,%r15
  4025b6:	7e 21                	jle    4025d9 <main+0x1a79>
  4025b8:	49 89 f9             	mov    %rdi,%r9
  4025bb:	49 c1 e1 04          	shl    $0x4,%r9
  4025bf:	49 01 c9             	add    %rcx,%r9
  4025c2:	49 c1 e1 03          	shl    $0x3,%r9
  4025c6:	4a 8d 44 0b b8       	lea    -0x48(%rbx,%r9,1),%rax
  4025cb:	4c 8b 50 38          	mov    0x38(%rax),%r10
  4025cf:	4e 3b 54 0b 38       	cmp    0x38(%rbx,%r9,1),%r10
  4025d4:	7d 27                	jge    4025fd <main+0x1a9d>
  4025d6:	48 ff c1             	inc    %rcx
  4025d9:	49 39 cf             	cmp    %rcx,%r15
  4025dc:	7d 12                	jge    4025f0 <main+0x1a90>
  4025de:	49 8b 06             	mov    (%r14),%rax
  4025e1:	45 31 c9             	xor    %r9d,%r9d
  4025e4:	e9 f7 f8 ff ff       	jmpq   401ee0 <main+0x1380>
  4025e9:	0f 1f 80 00 00 00 00 	nopl   0x0(%rax)
  4025f0:	48 8d 04 c9          	lea    (%rcx,%rcx,8),%rax
  4025f4:	48 8d 44 c3 b8       	lea    -0x48(%rbx,%rax,8),%rax
  4025f9:	4c 8b 50 38          	mov    0x38(%rax),%r10
  4025fd:	49 89 f9             	mov    %rdi,%r9
  402600:	4c 39 d2             	cmp    %r10,%rdx
  402603:	7d d9                	jge    4025de <main+0x1a7e>
  402605:	48 89 cf             	mov    %rcx,%rdi
  402608:	e9 53 ff ff ff       	jmpq   402560 <main+0x1a00>
  40260d:	0f 1f 00             	nopl   (%rax)
  402610:	48 8d 4c ed 00       	lea    0x0(%rbp,%rbp,8),%rcx
  402615:	c4 c3 f9 22 c0 01    	vpinsrq $0x1,%r8,%xmm0,%xmm0
  40261b:	48 ff c5             	inc    %rbp
  40261e:	41 89 c2             	mov    %eax,%r10d
  402621:	48 8d 0c cb          	lea    (%rbx,%rcx,8),%rcx
  402625:	c5 f8 11 41 10       	vmovups %xmm0,0x10(%rcx)
  40262a:	48 c7 41 40 1e 00 00 	movq   $0x1e,0x40(%rcx)
  402631:	00 
  402632:	48 c7 41 08 1e 00 00 	movq   $0x1e,0x8(%rcx)
  402639:	00 
  40263a:	48 89 51 38          	mov    %rdx,0x38(%rcx)
  40263e:	89 01                	mov    %eax,(%rcx)
  402640:	48 83 fd 01          	cmp    $0x1,%rbp
  402644:	0f 84 96 00 00 00    	je     4026e0 <main+0x1b80>
  40264a:	48 89 e9             	mov    %rbp,%rcx
  40264d:	48 d1 f9             	sar    %rcx
  402650:	48 8d 04 c9          	lea    (%rcx,%rcx,8),%rax
  402654:	48 8d 44 c3 b8       	lea    -0x48(%rbx,%rax,8),%rax
  402659:	48 3b 50 38          	cmp    0x38(%rax),%rdx
  40265d:	0f 8e 7d 00 00 00    	jle    4026e0 <main+0x1b80>
  402663:	48 89 ef             	mov    %rbp,%rdi
  402666:	eb 23                	jmp    40268b <main+0x1b2b>
  402668:	0f 1f 84 00 00 00 00 	nopl   0x0(%rax,%rax,1)
  40266f:	00 
  402670:	49 89 cb             	mov    %rcx,%r11
  402673:	48 89 cf             	mov    %rcx,%rdi
  402676:	49 d1 fb             	sar    %r11
  402679:	4b 8d 04 db          	lea    (%r11,%r11,8),%rax
  40267d:	48 8d 44 c3 b8       	lea    -0x48(%rbx,%rax,8),%rax
  402682:	48 3b 50 38          	cmp    0x38(%rax),%rdx
  402686:	7e 58                	jle    4026e0 <main+0x1b80>
  402688:	4c 89 d9             	mov    %r11,%rcx
  40268b:	4c 8b 58 10          	mov    0x10(%rax),%r11
  40268f:	48 8d 3c ff          	lea    (%rdi,%rdi,8),%rdi
  402693:	48 8d 7c fb b8       	lea    -0x48(%rbx,%rdi,8),%rdi
  402698:	4c 89 5f 10          	mov    %r11,0x10(%rdi)
  40269c:	4c 8b 58 18          	mov    0x18(%rax),%r11
  4026a0:	4c 89 5f 18          	mov    %r11,0x18(%rdi)
  4026a4:	4c 8b 58 08          	mov    0x8(%rax),%r11
  4026a8:	4c 89 5f 08          	mov    %r11,0x8(%rdi)
  4026ac:	4c 89 5f 40          	mov    %r11,0x40(%rdi)
  4026b0:	4c 8b 58 38          	mov    0x38(%rax),%r11
  4026b4:	4c 89 5f 38          	mov    %r11,0x38(%rdi)
  4026b8:	44 8b 18             	mov    (%rax),%r11d
  4026bb:	44 89 1f             	mov    %r11d,(%rdi)
  4026be:	c5 f8 11 40 10       	vmovups %xmm0,0x10(%rax)
  4026c3:	48 c7 40 08 1e 00 00 	movq   $0x1e,0x8(%rax)
  4026ca:	00 
  4026cb:	48 c7 40 40 1e 00 00 	movq   $0x1e,0x40(%rax)
  4026d2:	00 
  4026d3:	48 89 50 38          	mov    %rdx,0x38(%rax)
  4026d7:	44 89 10             	mov    %r10d,(%rax)
  4026da:	48 83 f9 01          	cmp    $0x1,%rcx
  4026de:	75 90                	jne    402670 <main+0x1b10>
  4026e0:	48 8b 44 24 40       	mov    0x40(%rsp),%rax
  4026e5:	48 89 6c 24 18       	mov    %rbp,0x18(%rsp)
  4026ea:	48 89 28             	mov    %rbp,(%rax)
  4026ed:	49 8b 06             	mov    (%r14),%rax
  4026f0:	e9 eb f7 ff ff       	jmpq   401ee0 <main+0x1380>
  4026f5:	90                   	nop
  4026f6:	66 2e 0f 1f 84 00 00 	nopw   %cs:0x0(%rax,%rax,1)
  4026fd:	00 00 00 
  402700:	48 0f af 15 98 4c 20 	imul   0x204c98(%rip),%rdx        # 6073a0 <net+0x280>
  402707:	00 
  402708:	48 01 c2             	add    %rax,%rdx
  40270b:	e9 aa fa ff ff       	jmpq   4021ba <main+0x165a>
  402710:	48 2d 00 09 3d 00    	sub    $0x3d0900,%rax
  402716:	e9 be f8 ff ff       	jmpq   401fd9 <main+0x1479>
  40271b:	0f 1f 44 00 00       	nopl   0x0(%rax,%rax,1)
  402720:	48 0f af 15 78 4c 20 	imul   0x204c78(%rip),%rdx        # 6073a0 <net+0x280>
  402727:	00 
  402728:	48 01 c2             	add    %rax,%rdx
  40272b:	e9 df fc ff ff       	jmpq   40240f <main+0x18af>
  402730:	48 8b 15 21 4c 20 00 	mov    0x204c21(%rip),%rdx        # 607358 <net+0x238>
  402737:	45 31 c0             	xor    %r8d,%r8d
  40273a:	31 ff                	xor    %edi,%edi
  40273c:	4d 85 ed             	test   %r13,%r13
  40273f:	7f 72                	jg     4027b3 <main+0x1c53>
  402741:	e9 ba 00 00 00       	jmpq   402800 <main+0x1ca0>
  402746:	66 2e 0f 1f 84 00 00 	nopw   %cs:0x0(%rax,%rax,1)
  40274d:	00 00 00 
  402750:	4c 29 d2             	sub    %r10,%rdx
  402753:	4d 0f af d3          	imul   %r11,%r10
  402757:	49 8d 73 ff          	lea    -0x1(%r11),%rsi
  40275b:	48 0f af f2          	imul   %rdx,%rsi
  40275f:	4a 8d 14 16          	lea    (%rsi,%r10,1),%rdx
  402763:	48 01 c2             	add    %rax,%rdx
  402766:	c4 c1 78 10 39       	vmovups (%r9),%xmm7
  40276b:	48 8d 04 d2          	lea    (%rdx,%rdx,8),%rax
  40276f:	48 8d 04 c1          	lea    (%rcx,%rax,8),%rax
  402773:	c5 f8 11 38          	vmovups %xmm7,(%rax)
  402777:	c4 c1 78 10 61 10    	vmovups 0x10(%r9),%xmm4
  40277d:	c5 f8 11 60 10       	vmovups %xmm4,0x10(%rax)
  402782:	c4 c1 78 10 59 20    	vmovups 0x20(%r9),%xmm3
  402788:	c5 f8 11 58 20       	vmovups %xmm3,0x20(%rax)
  40278d:	c4 c1 78 10 69 30    	vmovups 0x30(%r9),%xmm5
  402793:	c5 f8 11 68 30       	vmovups %xmm5,0x30(%rax)
  402798:	49 8b 51 40          	mov    0x40(%r9),%rdx
  40279c:	48 89 50 40          	mov    %rdx,0x40(%rax)
  4027a0:	48 8b 15 b1 4b 20 00 	mov    0x204bb1(%rip),%rdx        # 607358 <net+0x238>
  4027a7:	48 ff c7             	inc    %rdi
  4027aa:	49 83 c0 48          	add    $0x48,%r8
  4027ae:	4c 39 ef             	cmp    %r13,%rdi
  4027b1:	74 4d                	je     402800 <main+0x1ca0>
  4027b3:	4e 8d 0c 02          	lea    (%rdx,%r8,1),%r9
  4027b7:	49 63 01             	movslq (%r9),%rax
  4027ba:	85 c0                	test   %eax,%eax
  4027bc:	78 e9                	js     4027a7 <main+0x1c47>
  4027be:	48 99                	cqto   
  4027c0:	4c 8b 15 d1 4b 20 00 	mov    0x204bd1(%rip),%r10        # 607398 <net+0x278>
  4027c7:	4c 8b 1d d2 4b 20 00 	mov    0x204bd2(%rip),%r11        # 6073a0 <net+0x280>
  4027ce:	48 f7 3d bb 4b 20 00 	idivq  0x204bbb(%rip)        # 607390 <net+0x270>
  4027d5:	4c 39 d2             	cmp    %r10,%rdx
  4027d8:	0f 8f 72 ff ff ff    	jg     402750 <main+0x1bf0>
  4027de:	49 0f af d3          	imul   %r11,%rdx
  4027e2:	48 01 c2             	add    %rax,%rdx
  4027e5:	e9 7c ff ff ff       	jmpq   402766 <main+0x1c06>
  4027ea:	66 0f 1f 44 00 00    	nopw   0x0(%rax,%rax,1)
  4027f0:	49 0f af d3          	imul   %r11,%rdx
  4027f4:	48 01 c2             	add    %rax,%rdx
  4027f7:	e9 cc fa ff ff       	jmpq   4022c8 <main+0x1768>
  4027fc:	0f 1f 40 00          	nopl   0x0(%rax)
  402800:	48 8b 05 c1 4a 20 00 	mov    0x204ac1(%rip),%rax        # 6072c8 <net+0x1a8>
  402807:	48 8b 7c 24 40       	mov    0x40(%rsp),%rdi
  40280c:	48 89 0d 45 4b 20 00 	mov    %rcx,0x204b45(%rip)        # 607358 <net+0x238>
  402813:	48 89 15 4e 4b 20 00 	mov    %rdx,0x204b4e(%rip)        # 607368 <net+0x248>
  40281a:	48 01 d8             	add    %rbx,%rax
  40281d:	48 89 05 a4 4a 20 00 	mov    %rax,0x204aa4(%rip)        # 6072c8 <net+0x1a8>
  402824:	48 8d 04 c0          	lea    (%rax,%rax,8),%rax
  402828:	48 8d 04 c1          	lea    (%rcx,%rax,8),%rax
  40282c:	48 89 05 2d 4b 20 00 	mov    %rax,0x204b2d(%rip)        # 607360 <net+0x240>
  402833:	e8 38 e2 ff ff       	callq  400a70 <free@plt>
  402838:	4c 89 f7             	mov    %r14,%rdi
  40283b:	e8 30 e2 ff ff       	callq  400a70 <free@plt>
  402840:	48 8b 7c 24 58       	mov    0x58(%rsp),%rdi
  402845:	e8 26 e2 ff ff       	callq  400a70 <free@plt>
  40284a:	48 8b 7c 24 10       	mov    0x10(%rsp),%rdi
  40284f:	e8 1c e2 ff ff       	callq  400a70 <free@plt>
  402854:	48 85 db             	test   %rbx,%rbx
  402857:	0f 85 b3 03 00 00    	jne    402c10 <main+0x20b0>
  40285d:	e8 3e 05 00 00       	callq  402da0 <flow_cost.constprop.30>
  402862:	bf d8 61 40 00       	mov    $0x4061d8,%edi
  402867:	b8 01 00 00 00       	mov    $0x1,%eax
  40286c:	c5 fb 11 05 c4 4a 20 	vmovsd %xmm0,0x204ac4(%rip)        # 607338 <net+0x218>
  402873:	00 
  402874:	e8 17 e2 ff ff       	callq  400a90 <printf@plt>
  402879:	be 16 63 40 00       	mov    $0x406316,%esi
  40287e:	48 8d bc 24 b0 00 00 	lea    0xb0(%rsp),%rdi
  402885:	00 
  402886:	e8 85 e2 ff ff       	callq  400b10 <fopen@plt>
  40288b:	48 89 c3             	mov    %rax,%rbx
  40288e:	48 85 c0             	test   %rax,%rax
  402891:	0f 84 e7 03 00 00    	je     402c7e <main+0x211e>
  402897:	e8 04 05 00 00       	callq  402da0 <flow_cost.constprop.30>
  40289c:	be 18 63 40 00       	mov    $0x406318,%esi
  4028a1:	48 89 df             	mov    %rbx,%rdi
  4028a4:	b8 01 00 00 00       	mov    $0x1,%eax
  4028a9:	e8 12 e2 ff ff       	callq  400ac0 <fprintf@plt>
  4028ae:	48 89 df             	mov    %rbx,%rdi
  4028b1:	e8 ca e1 ff ff       	callq  400a80 <fclose@plt>
  4028b6:	e8 05 36 00 00       	callq  405ec0 <getfree.constprop.3>
  4028bb:	bf 1e 63 40 00       	mov    $0x40631e,%edi
  4028c0:	e8 8b e1 ff ff       	callq  400a50 <puts@plt>
  4028c5:	31 c0                	xor    %eax,%eax
  4028c7:	48 81 c4 d8 01 00 00 	add    $0x1d8,%rsp
  4028ce:	5b                   	pop    %rbx
  4028cf:	5d                   	pop    %rbp
  4028d0:	41 5c                	pop    %r12
  4028d2:	41 5d                	pop    %r13
  4028d4:	41 5e                	pop    %r14
  4028d6:	41 5f                	pop    %r15
  4028d8:	c3                   	retq   
  4028d9:	0f 1f 80 00 00 00 00 	nopl   0x0(%rax)
  4028e0:	48 85 d2             	test   %rdx,%rdx
  4028e3:	0f 85 9d f4 ff ff    	jne    401d86 <main+0x1226>
  4028e9:	4c 8b 44 24 48       	mov    0x48(%rsp),%r8
  4028ee:	48 8b 74 24 10       	mov    0x10(%rsp),%rsi
  4028f3:	4d 89 2e             	mov    %r13,(%r14)
  4028f6:	4c 89 f9             	mov    %r15,%rcx
  4028f9:	48 89 da             	mov    %rbx,%rdx
  4028fc:	4c 89 f7             	mov    %r14,%rdi
  4028ff:	44 89 4c 24 18       	mov    %r9d,0x18(%rsp)
  402904:	45 31 ed             	xor    %r13d,%r13d
  402907:	e8 c4 2a 00 00       	callq  4053d0 <switch_arcs.constprop.17>
  40290c:	49 c7 06 00 00 00 00 	movq   $0x0,(%r14)
  402913:	44 8b 4c 24 18       	mov    0x18(%rsp),%r9d
  402918:	e9 69 f4 ff ff       	jmpq   401d86 <main+0x1226>
  40291d:	0f 1f 00             	nopl   (%rax)
  402920:	48 8b 48 10          	mov    0x10(%rax),%rcx
  402924:	48 8b 50 08          	mov    0x8(%rax),%rdx
  402928:	48 2b 11             	sub    (%rcx),%rdx
  40292b:	48 8b 48 18          	mov    0x18(%rax),%rcx
  40292f:	48 03 11             	add    (%rcx),%rdx
  402932:	0f 88 7a ef ff ff    	js     4018b2 <main+0xd52>
  402938:	49 ff c2             	inc    %r10
  40293b:	ba ff ff ff ff       	mov    $0xffffffff,%edx
  402940:	e9 73 ef ff ff       	jmpq   4018b8 <main+0xd58>
  402945:	90                   	nop
  402946:	66 2e 0f 1f 84 00 00 	nopw   %cs:0x0(%rax,%rax,1)
  40294d:	00 00 00 
  402950:	b9 a0 0f 00 00       	mov    $0xfa0,%ecx
  402955:	e9 f5 ee ff ff       	jmpq   40184f <main+0xcef>
  40295a:	66 0f 1f 44 00 00    	nopw   0x0(%rax,%rax,1)
  402960:	48 8b 3d 61 49 20 00 	mov    0x204961(%rip),%rdi        # 6072c8 <net+0x1a8>
  402967:	e8 84 05 00 00       	callq  402ef0 <refreshPositions.constprop.25>
  40296c:	48 8b 1d 55 49 20 00 	mov    0x204955(%rip),%rbx        # 6072c8 <net+0x1a8>
  402973:	e9 18 f1 ff ff       	jmpq   401a90 <main+0xf30>
  402978:	0f 1f 84 00 00 00 00 	nopl   0x0(%rax,%rax,1)
  40297f:	00 
  402980:	48 c7 05 7d 49 20 00 	movq   $0x1,0x20497d(%rip)        # 607308 <net+0x1e8>
  402987:	01 00 00 00 
  40298b:	e9 10 ed ff ff       	jmpq   4016a0 <main+0xb40>
  402990:	48 ff c6             	inc    %rsi
  402993:	48 83 c1 48          	add    $0x48,%rcx
  402997:	48 39 fe             	cmp    %rdi,%rsi
  40299a:	0f 8c e0 ea ff ff    	jl     401480 <main+0x920>
  4029a0:	e9 08 eb ff ff       	jmpq   4014ad <main+0x94d>
  4029a5:	90                   	nop
  4029a6:	66 2e 0f 1f 84 00 00 	nopw   %cs:0x0(%rax,%rax,1)
  4029ad:	00 00 00 
  4029b0:	bf b3 62 40 00       	mov    $0x4062b3,%edi
  4029b5:	31 c0                	xor    %eax,%eax
  4029b7:	0f 18 8b 68 02 00 00 	prefetcht0 0x268(%rbx)
  4029be:	e8 cd e0 ff ff       	callq  400a90 <printf@plt>
  4029c3:	8b 73 60             	mov    0x60(%rbx),%esi
  4029c6:	48 89 ea             	mov    %rbp,%rdx
  4029c9:	bf 08 61 40 00       	mov    $0x406108,%edi
  4029ce:	31 c0                	xor    %eax,%eax
  4029d0:	e8 bb e0 ff ff       	callq  400a90 <printf@plt>
  4029d5:	e9 5f ec ff ff       	jmpq   401639 <main+0xad9>
  4029da:	66 0f 1f 44 00 00    	nopw   0x0(%rax,%rax,1)
  4029e0:	e8 db 33 00 00       	callq  405dc0 <resize_prob.constprop.14>
  4029e5:	48 85 c0             	test   %rax,%rax
  4029e8:	0f 85 36 02 00 00    	jne    402c24 <main+0x20c4>
  4029ee:	48 8b 05 53 49 20 00 	mov    0x204953(%rip),%rax        # 607348 <net+0x228>
  4029f5:	48 8b 15 54 49 20 00 	mov    0x204954(%rip),%rdx        # 607350 <net+0x230>
  4029fc:	c5 f8 57 c0          	vxorps %xmm0,%xmm0,%xmm0
  402a00:	48 39 d0             	cmp    %rdx,%rax
  402a03:	73 19                	jae    402a1e <main+0x1ebe>
  402a05:	90                   	nop
  402a06:	66 2e 0f 1f 84 00 00 	nopw   %cs:0x0(%rax,%rax,1)
  402a0d:	00 00 00 
  402a10:	c5 f8 11 40 38       	vmovups %xmm0,0x38(%rax)
  402a15:	48 83 c0 68          	add    $0x68,%rax
  402a19:	48 39 c2             	cmp    %rax,%rdx
  402a1c:	77 f2                	ja     402a10 <main+0x1eb0>
  402a1e:	31 d2                	xor    %edx,%edx
  402a20:	48 83 3d a0 48 20 00 	cmpq   $0x0,0x2048a0(%rip)        # 6072c8 <net+0x1a8>
  402a27:	00 
  402a28:	48 8b 05 29 49 20 00 	mov    0x204929(%rip),%rax        # 607358 <net+0x238>
  402a2f:	b9 48 00 00 00       	mov    $0x48,%ecx
  402a34:	7e 44                	jle    402a7a <main+0x1f1a>
  402a36:	66 2e 0f 1f 84 00 00 	nopw   %cs:0x0(%rax,%rax,1)
  402a3d:	00 00 00 
  402a40:	48 8b 70 10          	mov    0x10(%rax),%rsi
  402a44:	48 ff c2             	inc    %rdx
  402a47:	48 8b 7e 38          	mov    0x38(%rsi),%rdi
  402a4b:	48 89 78 28          	mov    %rdi,0x28(%rax)
  402a4f:	48 89 46 38          	mov    %rax,0x38(%rsi)
  402a53:	48 8b 70 18          	mov    0x18(%rax),%rsi
  402a57:	48 8b 7e 40          	mov    0x40(%rsi),%rdi
  402a5b:	48 89 78 30          	mov    %rdi,0x30(%rax)
  402a5f:	48 89 46 40          	mov    %rax,0x40(%rsi)
  402a63:	48 8b 05 ee 48 20 00 	mov    0x2048ee(%rip),%rax        # 607358 <net+0x238>
  402a6a:	48 01 c8             	add    %rcx,%rax
  402a6d:	48 83 c1 48          	add    $0x48,%rcx
  402a71:	48 39 15 50 48 20 00 	cmp    %rdx,0x204850(%rip)        # 6072c8 <net+0x1a8>
  402a78:	7f c6                	jg     402a40 <main+0x1ee0>
  402a7a:	48 8b 05 37 48 20 00 	mov    0x204837(%rip),%rax        # 6072b8 <net+0x198>
  402a81:	ba e8 03 00 00       	mov    $0x3e8,%edx
  402a86:	48 c7 44 24 30 01 00 	movq   $0x1,0x30(%rsp)
  402a8d:	00 00 
  402a8f:	48 3d 99 3a 00 00    	cmp    $0x3a99,%rax
  402a95:	48 89 44 24 20       	mov    %rax,0x20(%rsp)
  402a9a:	b8 d0 07 00 00       	mov    $0x7d0,%eax
  402a9f:	48 0f 4c c2          	cmovl  %rdx,%rax
  402aa3:	48 89 44 24 28       	mov    %rax,0x28(%rsp)
  402aa8:	e9 93 f0 ff ff       	jmpq   401b40 <main+0xfe0>
  402aad:	0f 1f 00             	nopl   (%rax)
  402ab0:	48 c7 44 24 30 00 00 	movq   $0x0,0x30(%rsp)
  402ab7:	00 00 
  402ab9:	48 c7 44 24 28 e8 03 	movq   $0x3e8,0x28(%rsp)
  402ac0:	00 00 
  402ac2:	e9 79 f0 ff ff       	jmpq   401b40 <main+0xfe0>
  402ac7:	66 0f 1f 84 00 00 00 	nopw   0x0(%rax,%rax,1)
  402ace:	00 00 
  402ad0:	48 39 d0             	cmp    %rdx,%rax
  402ad3:	0f 8e c7 00 00 00    	jle    402ba0 <main+0x2040>
  402ad9:	48 89 f0             	mov    %rsi,%rax
  402adc:	48 c7 44 24 30 00 00 	movq   $0x0,0x30(%rsp)
  402ae3:	00 00 
  402ae5:	48 c7 44 24 28 d0 07 	movq   $0x7d0,0x28(%rsp)
  402aec:	00 00 
  402aee:	48 0f af c6          	imul   %rsi,%rax
  402af2:	48 d1 f8             	sar    %rax
  402af5:	48 01 c3             	add    %rax,%rbx
  402af8:	48 39 d3             	cmp    %rdx,%rbx
  402afb:	0f 8e 3f f0 ff ff    	jle    401b40 <main+0xfe0>
  402b01:	e8 ba 32 00 00       	callq  405dc0 <resize_prob.constprop.14>
  402b06:	48 85 c0             	test   %rax,%rax
  402b09:	0f 85 15 01 00 00    	jne    402c24 <main+0x20c4>
  402b0f:	48 8b 05 32 48 20 00 	mov    0x204832(%rip),%rax        # 607348 <net+0x228>
  402b16:	48 8b 15 33 48 20 00 	mov    0x204833(%rip),%rdx        # 607350 <net+0x230>
  402b1d:	c5 f8 57 c0          	vxorps %xmm0,%xmm0,%xmm0
  402b21:	48 39 d0             	cmp    %rdx,%rax
  402b24:	73 18                	jae    402b3e <main+0x1fde>
  402b26:	66 2e 0f 1f 84 00 00 	nopw   %cs:0x0(%rax,%rax,1)
  402b2d:	00 00 00 
  402b30:	c5 f8 11 40 38       	vmovups %xmm0,0x38(%rax)
  402b35:	48 83 c0 68          	add    $0x68,%rax
  402b39:	48 39 c2             	cmp    %rax,%rdx
  402b3c:	77 f2                	ja     402b30 <main+0x1fd0>
  402b3e:	31 d2                	xor    %edx,%edx
  402b40:	48 83 3d 80 47 20 00 	cmpq   $0x0,0x204780(%rip)        # 6072c8 <net+0x1a8>
  402b47:	00 
  402b48:	48 8b 05 09 48 20 00 	mov    0x204809(%rip),%rax        # 607358 <net+0x238>
  402b4f:	b9 48 00 00 00       	mov    $0x48,%ecx
  402b54:	0f 8e 20 ff ff ff    	jle    402a7a <main+0x1f1a>
  402b5a:	66 0f 1f 44 00 00    	nopw   0x0(%rax,%rax,1)
  402b60:	48 8b 70 10          	mov    0x10(%rax),%rsi
  402b64:	48 ff c2             	inc    %rdx
  402b67:	48 8b 7e 38          	mov    0x38(%rsi),%rdi
  402b6b:	48 89 78 28          	mov    %rdi,0x28(%rax)
  402b6f:	48 89 46 38          	mov    %rax,0x38(%rsi)
  402b73:	48 8b 70 18          	mov    0x18(%rax),%rsi
  402b77:	48 8b 7e 40          	mov    0x40(%rsi),%rdi
  402b7b:	48 89 78 30          	mov    %rdi,0x30(%rax)
  402b7f:	48 89 46 40          	mov    %rax,0x40(%rsi)
  402b83:	48 8b 05 ce 47 20 00 	mov    0x2047ce(%rip),%rax        # 607358 <net+0x238>
  402b8a:	48 01 c8             	add    %rcx,%rax
  402b8d:	48 83 c1 48          	add    $0x48,%rcx
  402b91:	48 39 15 30 47 20 00 	cmp    %rdx,0x204730(%rip)        # 6072c8 <net+0x1a8>
  402b98:	7f c6                	jg     402b60 <main+0x2000>
  402b9a:	e9 db fe ff ff       	jmpq   402a7a <main+0x1f1a>
  402b9f:	90                   	nop
  402ba0:	48 c7 44 24 30 00 00 	movq   $0x0,0x30(%rsp)
  402ba7:	00 00 
  402ba9:	48 c7 44 24 28 d0 07 	movq   $0x7d0,0x28(%rsp)
  402bb0:	00 00 
  402bb2:	e9 89 ef ff ff       	jmpq   401b40 <main+0xfe0>
  402bb7:	66 0f 1f 84 00 00 00 	nopw   0x0(%rax,%rax,1)
  402bbe:	00 00 
  402bc0:	31 c0                	xor    %eax,%eax
  402bc2:	e9 0c f1 ff ff       	jmpq   401cd3 <main+0x1173>
  402bc7:	66 0f 1f 84 00 00 00 	nopw   0x0(%rax,%rax,1)
  402bce:	00 00 
  402bd0:	31 d2                	xor    %edx,%edx
  402bd2:	c5 f8 28 05 a6 37 00 	vmovaps 0x37a6(%rip),%xmm0        # 406380 <_IO_stdin_used+0x3a0>
  402bd9:	00 
  402bda:	c5 f8 28 25 5e 37 00 	vmovaps 0x375e(%rip),%xmm4        # 406340 <_IO_stdin_used+0x360>
  402be1:	00 
  402be2:	e9 b9 f0 ff ff       	jmpq   401ca0 <main+0x1140>
  402be7:	66 0f 1f 84 00 00 00 	nopw   0x0(%rax,%rax,1)
  402bee:	00 00 
  402bf0:	44 0f b6 64 24 77    	movzbl 0x77(%rsp),%r12d
  402bf6:	48 c7 44 24 18 00 00 	movq   $0x0,0x18(%rsp)
  402bfd:	00 00 
  402bff:	31 ed                	xor    %ebp,%ebp
  402c01:	48 c7 04 24 00 00 00 	movq   $0x0,(%rsp)
  402c08:	00 
  402c09:	e9 4f f3 ff ff       	jmpq   401f5d <main+0x13fd>
  402c0e:	66 90                	xchg   %ax,%ax
  402c10:	48 89 de             	mov    %rbx,%rsi
  402c13:	bf b0 61 40 00       	mov    $0x4061b0,%edi
  402c18:	31 c0                	xor    %eax,%eax
  402c1a:	e8 71 de ff ff       	callq  400a90 <printf@plt>
  402c1f:	e9 3c e9 ff ff       	jmpq   401560 <main+0xa00>
  402c24:	48 83 ce ff          	or     $0xffffffffffffffff,%rsi
  402c28:	bf b0 61 40 00       	mov    $0x4061b0,%edi
  402c2d:	31 c0                	xor    %eax,%eax
  402c2f:	e8 5c de ff ff       	callq  400a90 <printf@plt>
  402c34:	bf fa 62 40 00       	mov    $0x4062fa,%edi
  402c39:	e8 12 de ff ff       	callq  400a50 <puts@plt>
  402c3e:	83 cf ff             	or     $0xffffffff,%edi
  402c41:	e8 ea de ff ff       	callq  400b30 <exit@plt>
  402c46:	45 31 e4             	xor    %r12d,%r12d
  402c49:	41 bf 01 00 00 00    	mov    $0x1,%r15d
  402c4f:	e9 6b e5 ff ff       	jmpq   4011bf <main+0x65f>
  402c54:	bf 78 62 40 00       	mov    $0x406278,%edi
  402c59:	e8 f2 dd ff ff       	callq  400a50 <puts@plt>
  402c5e:	e8 5d 32 00 00       	callq  405ec0 <getfree.constprop.3>
  402c63:	bf a2 62 40 00       	mov    $0x4062a2,%edi
  402c68:	e8 e3 dd ff ff       	callq  400a50 <puts@plt>
  402c6d:	e8 4e 32 00 00       	callq  405ec0 <getfree.constprop.3>
  402c72:	83 c8 ff             	or     $0xffffffff,%eax
  402c75:	e9 4d fc ff ff       	jmpq   4028c7 <main+0x1d67>
  402c7a:	83 c8 ff             	or     $0xffffffff,%eax
  402c7d:	c3                   	retq   
  402c7e:	e8 3d 32 00 00       	callq  405ec0 <getfree.constprop.3>
  402c83:	83 c8 ff             	or     $0xffffffff,%eax
  402c86:	e9 3c fc ff ff       	jmpq   4028c7 <main+0x1d67>

0000000000402c8b <_start>:
  402c8b:	31 ed                	xor    %ebp,%ebp
  402c8d:	49 89 d1             	mov    %rdx,%r9
  402c90:	5e                   	pop    %rsi
  402c91:	48 89 e2             	mov    %rsp,%rdx
  402c94:	48 83 e4 f0          	and    $0xfffffffffffffff0,%rsp
  402c98:	50                   	push   %rax
  402c99:	54                   	push   %rsp
  402c9a:	49 c7 c0 b0 5f 40 00 	mov    $0x405fb0,%r8
  402ca1:	48 c7 c1 40 5f 40 00 	mov    $0x405f40,%rcx
  402ca8:	48 c7 c7 60 0b 40 00 	mov    $0x400b60,%rdi
  402caf:	e8 ec dd ff ff       	callq  400aa0 <__libc_start_main@plt>
  402cb4:	f4                   	hlt    

0000000000402cb5 <deregister_tm_clones>:
  402cb5:	55                   	push   %rbp
  402cb6:	48 89 e5             	mov    %rsp,%rbp
  402cb9:	48 83 ec 10          	sub    $0x10,%rsp
  402cbd:	48 c7 45 f8 c8 70 60 	movq   $0x6070c8,-0x8(%rbp)
  402cc4:	00 
  402cc5:	48 8b 45 f8          	mov    -0x8(%rbp),%rax
  402cc9:	48 89 45 f8          	mov    %rax,-0x8(%rbp)
  402ccd:	48 81 7d f8 c8 70 60 	cmpq   $0x6070c8,-0x8(%rbp)
  402cd4:	00 
  402cd5:	74 24                	je     402cfb <deregister_tm_clones+0x46>
  402cd7:	48 c7 45 f0 00 00 00 	movq   $0x0,-0x10(%rbp)
  402cde:	00 
  402cdf:	48 8b 45 f0          	mov    -0x10(%rbp),%rax
  402ce3:	48 89 45 f0          	mov    %rax,-0x10(%rbp)
  402ce7:	48 83 7d f0 00       	cmpq   $0x0,-0x10(%rbp)
  402cec:	74 0e                	je     402cfc <deregister_tm_clones+0x47>
  402cee:	48 8b 45 f0          	mov    -0x10(%rbp),%rax
  402cf2:	bf c8 70 60 00       	mov    $0x6070c8,%edi
  402cf7:	ff d0                	callq  *%rax
  402cf9:	eb 01                	jmp    402cfc <deregister_tm_clones+0x47>
  402cfb:	90                   	nop
  402cfc:	c9                   	leaveq 
  402cfd:	c3                   	retq   

0000000000402cfe <register_tm_clones>:
  402cfe:	55                   	push   %rbp
  402cff:	48 89 e5             	mov    %rsp,%rbp
  402d02:	48 83 ec 20          	sub    $0x20,%rsp
  402d06:	48 c7 45 f8 c8 70 60 	movq   $0x6070c8,-0x8(%rbp)
  402d0d:	00 
  402d0e:	48 8b 45 f8          	mov    -0x8(%rbp),%rax
  402d12:	48 89 45 f8          	mov    %rax,-0x8(%rbp)
  402d16:	48 8b 45 f8          	mov    -0x8(%rbp),%rax
  402d1a:	48 2d c8 70 60 00    	sub    $0x6070c8,%rax
  402d20:	48 c1 f8 03          	sar    $0x3,%rax
  402d24:	48 89 c2             	mov    %rax,%rdx
  402d27:	48 c1 ea 3f          	shr    $0x3f,%rdx
  402d2b:	48 01 d0             	add    %rdx,%rax
  402d2e:	48 d1 f8             	sar    %rax
  402d31:	48 89 45 f0          	mov    %rax,-0x10(%rbp)
  402d35:	48 83 7d f0 00       	cmpq   $0x0,-0x10(%rbp)
  402d3a:	74 2b                	je     402d67 <register_tm_clones+0x69>
  402d3c:	48 c7 45 e8 00 00 00 	movq   $0x0,-0x18(%rbp)
  402d43:	00 
  402d44:	48 8b 45 e8          	mov    -0x18(%rbp),%rax
  402d48:	48 89 45 e8          	mov    %rax,-0x18(%rbp)
  402d4c:	48 83 7d e8 00       	cmpq   $0x0,-0x18(%rbp)
  402d51:	74 15                	je     402d68 <register_tm_clones+0x6a>
  402d53:	48 8b 55 f0          	mov    -0x10(%rbp),%rdx
  402d57:	48 8b 45 e8          	mov    -0x18(%rbp),%rax
  402d5b:	48 89 d6             	mov    %rdx,%rsi
  402d5e:	bf c8 70 60 00       	mov    $0x6070c8,%edi
  402d63:	ff d0                	callq  *%rax
  402d65:	eb 01                	jmp    402d68 <register_tm_clones+0x6a>
  402d67:	90                   	nop
  402d68:	c9                   	leaveq 
  402d69:	c3                   	retq   

0000000000402d6a <__do_global_dtors_aux>:
  402d6a:	55                   	push   %rbp
  402d6b:	48 89 e5             	mov    %rsp,%rbp
  402d6e:	0f b6 05 6b 43 20 00 	movzbl 0x20436b(%rip),%eax        # 6070e0 <completed.7242>
  402d75:	0f b6 c0             	movzbl %al,%eax
  402d78:	48 85 c0             	test   %rax,%rax
  402d7b:	75 0e                	jne    402d8b <__do_global_dtors_aux+0x21>
  402d7d:	e8 33 ff ff ff       	callq  402cb5 <deregister_tm_clones>
  402d82:	c6 05 57 43 20 00 01 	movb   $0x1,0x204357(%rip)        # 6070e0 <completed.7242>
  402d89:	eb 01                	jmp    402d8c <__do_global_dtors_aux+0x22>
  402d8b:	90                   	nop
  402d8c:	5d                   	pop    %rbp
  402d8d:	c3                   	retq   

0000000000402d8e <frame_dummy>:
  402d8e:	55                   	push   %rbp
  402d8f:	48 89 e5             	mov    %rsp,%rbp
  402d92:	e8 67 ff ff ff       	callq  402cfe <register_tm_clones>
  402d97:	90                   	nop
  402d98:	5d                   	pop    %rbp
  402d99:	c3                   	retq   
  402d9a:	66 0f 1f 44 00 00    	nopw   0x0(%rax,%rax,1)

0000000000402da0 <flow_cost.constprop.30>:
  402da0:	48 83 3d 20 45 20 00 	cmpq   $0x0,0x204520(%rip)        # 6072c8 <net+0x1a8>
  402da7:	00 
  402da8:	48 8b 05 a9 45 20 00 	mov    0x2045a9(%rip),%rax        # 607358 <net+0x238>
  402daf:	0f 8e 0b 01 00 00    	jle    402ec0 <flow_cost.constprop.30+0x120>
  402db5:	48 83 c0 20          	add    $0x20,%rax
  402db9:	31 d2                	xor    %edx,%edx
  402dbb:	0f 1f 44 00 00       	nopl   0x0(%rax,%rax,1)
  402dc0:	31 c9                	xor    %ecx,%ecx
  402dc2:	66 83 38 02          	cmpw   $0x2,(%rax)
  402dc6:	0f 94 c1             	sete   %cl
  402dc9:	48 ff c2             	inc    %rdx
  402dcc:	48 83 c0 48          	add    $0x48,%rax
  402dd0:	48 89 48 d0          	mov    %rcx,-0x30(%rax)
  402dd4:	48 8b 0d ed 44 20 00 	mov    0x2044ed(%rip),%rcx        # 6072c8 <net+0x1a8>
  402ddb:	48 39 d1             	cmp    %rdx,%rcx
  402dde:	7f e0                	jg     402dc0 <flow_cost.constprop.30+0x20>
  402de0:	48 83 3d c8 44 20 00 	cmpq   $0x0,0x2044c8(%rip)        # 6072b0 <net+0x190>
  402de7:	00 
  402de8:	48 8b 05 59 45 20 00 	mov    0x204559(%rip),%rax        # 607348 <net+0x228>
  402def:	7e 31                	jle    402e22 <flow_cost.constprop.30+0x82>
  402df1:	48 05 98 00 00 00    	add    $0x98,%rax
  402df7:	ba 01 00 00 00       	mov    $0x1,%edx
  402dfc:	0f 1f 40 00          	nopl   0x0(%rax)
  402e00:	48 8b 08             	mov    (%rax),%rcx
  402e03:	48 8b 70 20          	mov    0x20(%rax),%rsi
  402e07:	48 ff c2             	inc    %rdx
  402e0a:	48 83 c0 68          	add    $0x68,%rax
  402e0e:	48 89 71 38          	mov    %rsi,0x38(%rcx)
  402e12:	48 39 15 97 44 20 00 	cmp    %rdx,0x204497(%rip)        # 6072b0 <net+0x190>
  402e19:	7d e5                	jge    402e00 <flow_cost.constprop.30+0x60>
  402e1b:	48 8b 0d a6 44 20 00 	mov    0x2044a6(%rip),%rcx        # 6072c8 <net+0x1a8>
  402e22:	4c 8b 05 07 45 20 00 	mov    0x204507(%rip),%r8        # 607330 <net+0x210>
  402e29:	c5 e8 57 d2          	vxorps %xmm2,%xmm2,%xmm2
  402e2d:	48 8b 05 24 45 20 00 	mov    0x204524(%rip),%rax        # 607358 <net+0x238>
  402e34:	c4 c1 eb 2a d0       	vcvtsi2sd %r8,%xmm2,%xmm2
  402e39:	48 85 c9             	test   %rcx,%rcx
  402e3c:	0f 8e 93 00 00 00    	jle    402ed5 <flow_cost.constprop.30+0x135>
  402e42:	48 8d 14 c9          	lea    (%rcx,%rcx,8),%rdx
  402e46:	48 83 c0 08          	add    $0x8,%rax
  402e4a:	31 ff                	xor    %edi,%edi
  402e4c:	48 8d 34 d0          	lea    (%rax,%rdx,8),%rsi
  402e50:	31 d2                	xor    %edx,%edx
  402e52:	eb 23                	jmp    402e77 <flow_cost.constprop.30+0xd7>
  402e54:	66 90                	xchg   %ax,%ax
  402e56:	66 2e 0f 1f 84 00 00 	nopw   %cs:0x0(%rax,%rax,1)
  402e5d:	00 00 00 
  402e60:	48 8b 08             	mov    (%rax),%rcx
  402e63:	75 34                	jne    402e99 <flow_cost.constprop.30+0xf9>
  402e65:	4c 29 c1             	sub    %r8,%rcx
  402e68:	48 ff c7             	inc    %rdi
  402e6b:	48 01 ca             	add    %rcx,%rdx
  402e6e:	48 83 c0 48          	add    $0x48,%rax
  402e72:	48 39 f0             	cmp    %rsi,%rax
  402e75:	74 2e                	je     402ea5 <flow_cost.constprop.30+0x105>
  402e77:	48 83 78 30 00       	cmpq   $0x0,0x30(%rax)
  402e7c:	74 f0                	je     402e6e <flow_cost.constprop.30+0xce>
  402e7e:	48 8b 48 08          	mov    0x8(%rax),%rcx
  402e82:	44 8b 49 60          	mov    0x60(%rcx),%r9d
  402e86:	45 85 c9             	test   %r9d,%r9d
  402e89:	79 d5                	jns    402e60 <flow_cost.constprop.30+0xc0>
  402e8b:	48 8b 48 10          	mov    0x10(%rax),%rcx
  402e8f:	8b 49 60             	mov    0x60(%rcx),%ecx
  402e92:	85 c9                	test   %ecx,%ecx
  402e94:	7f d8                	jg     402e6e <flow_cost.constprop.30+0xce>
  402e96:	48 8b 08             	mov    (%rax),%rcx
  402e99:	48 83 c0 48          	add    $0x48,%rax
  402e9d:	48 01 ca             	add    %rcx,%rdx
  402ea0:	48 39 f0             	cmp    %rsi,%rax
  402ea3:	75 d2                	jne    402e77 <flow_cost.constprop.30+0xd7>
  402ea5:	c5 f8 57 c0          	vxorps %xmm0,%xmm0,%xmm0
  402ea9:	c5 f0 57 c9          	vxorps %xmm1,%xmm1,%xmm1
  402ead:	c4 e1 fb 2a c7       	vcvtsi2sd %rdi,%xmm0,%xmm0
  402eb2:	c4 e1 f3 2a ca       	vcvtsi2sd %rdx,%xmm1,%xmm1
  402eb7:	c4 e2 f1 99 c2       	vfmadd132sd %xmm2,%xmm1,%xmm0
  402ebc:	c3                   	retq   
  402ebd:	0f 1f 00             	nopl   (%rax)
  402ec0:	48 83 3d e8 43 20 00 	cmpq   $0x0,0x2043e8(%rip)        # 6072b0 <net+0x190>
  402ec7:	00 
  402ec8:	48 8b 05 79 44 20 00 	mov    0x204479(%rip),%rax        # 607348 <net+0x228>
  402ecf:	0f 8f 1c ff ff ff    	jg     402df1 <flow_cost.constprop.30+0x51>
  402ed5:	c5 f9 57 c0          	vxorpd %xmm0,%xmm0,%xmm0
  402ed9:	c3                   	retq   
  402eda:	66 0f 1f 44 00 00    	nopw   0x0(%rax,%rax,1)

0000000000402ee0 <getOriginalArcPosition>:
  402ee0:	48 89 f0             	mov    %rsi,%rax
  402ee3:	c3                   	retq   
  402ee4:	66 90                	xchg   %ax,%ax
  402ee6:	66 2e 0f 1f 84 00 00 	nopw   %cs:0x0(%rax,%rax,1)
  402eed:	00 00 00 

0000000000402ef0 <refreshPositions.constprop.25>:
  402ef0:	31 c9                	xor    %ecx,%ecx
  402ef2:	31 d2                	xor    %edx,%edx
  402ef4:	48 83 3d b4 43 20 00 	cmpq   $0x0,0x2043b4(%rip)        # 6072b0 <net+0x190>
  402efb:	00 
  402efc:	4c 8b 05 65 44 20 00 	mov    0x204465(%rip),%r8        # 607368 <net+0x248>
  402f03:	78 79                	js     402f7e <refreshPositions.constprop.25+0x8e>
  402f05:	90                   	nop
  402f06:	66 2e 0f 1f 84 00 00 	nopw   %cs:0x0(%rax,%rax,1)
  402f0d:	00 00 00 
  402f10:	48 8b 05 31 44 20 00 	mov    0x204431(%rip),%rax        # 607348 <net+0x228>
  402f17:	48 01 c8             	add    %rcx,%rax
  402f1a:	48 8b 70 30          	mov    0x30(%rax),%rsi
  402f1e:	48 85 f6             	test   %rsi,%rsi
  402f21:	74 13                	je     402f36 <refreshPositions.constprop.25+0x46>
  402f23:	48 63 36             	movslq (%rsi),%rsi
  402f26:	85 f6                	test   %esi,%esi
  402f28:	78 0c                	js     402f36 <refreshPositions.constprop.25+0x46>
  402f2a:	48 8d 34 f6          	lea    (%rsi,%rsi,8),%rsi
  402f2e:	49 8d 34 f0          	lea    (%r8,%rsi,8),%rsi
  402f32:	48 89 70 30          	mov    %rsi,0x30(%rax)
  402f36:	48 8b 70 40          	mov    0x40(%rax),%rsi
  402f3a:	48 85 f6             	test   %rsi,%rsi
  402f3d:	74 13                	je     402f52 <refreshPositions.constprop.25+0x62>
  402f3f:	48 63 36             	movslq (%rsi),%rsi
  402f42:	85 f6                	test   %esi,%esi
  402f44:	78 0c                	js     402f52 <refreshPositions.constprop.25+0x62>
  402f46:	48 8d 34 f6          	lea    (%rsi,%rsi,8),%rsi
  402f4a:	49 8d 34 f0          	lea    (%r8,%rsi,8),%rsi
  402f4e:	48 89 70 40          	mov    %rsi,0x40(%rax)
  402f52:	48 8b 70 38          	mov    0x38(%rax),%rsi
  402f56:	48 85 f6             	test   %rsi,%rsi
  402f59:	74 13                	je     402f6e <refreshPositions.constprop.25+0x7e>
  402f5b:	48 63 36             	movslq (%rsi),%rsi
  402f5e:	85 f6                	test   %esi,%esi
  402f60:	78 0c                	js     402f6e <refreshPositions.constprop.25+0x7e>
  402f62:	48 8d 34 f6          	lea    (%rsi,%rsi,8),%rsi
  402f66:	49 8d 34 f0          	lea    (%r8,%rsi,8),%rsi
  402f6a:	48 89 70 38          	mov    %rsi,0x38(%rax)
  402f6e:	48 ff c2             	inc    %rdx
  402f71:	48 83 c1 68          	add    $0x68,%rcx
  402f75:	48 3b 15 34 43 20 00 	cmp    0x204334(%rip),%rdx        # 6072b0 <net+0x190>
  402f7c:	7e 92                	jle    402f10 <refreshPositions.constprop.25+0x20>
  402f7e:	4c 8b 0d d3 43 20 00 	mov    0x2043d3(%rip),%r9        # 607358 <net+0x238>
  402f85:	31 f6                	xor    %esi,%esi
  402f87:	31 c9                	xor    %ecx,%ecx
  402f89:	48 85 ff             	test   %rdi,%rdi
  402f8c:	7e 56                	jle    402fe4 <refreshPositions.constprop.25+0xf4>
  402f8e:	66 90                	xchg   %ax,%ax
  402f90:	49 8d 04 31          	lea    (%r9,%rsi,1),%rax
  402f94:	48 63 10             	movslq (%rax),%rdx
  402f97:	85 d2                	test   %edx,%edx
  402f99:	78 3d                	js     402fd8 <refreshPositions.constprop.25+0xe8>
  402f9b:	c5 f8 10 00          	vmovups (%rax),%xmm0
  402f9f:	48 8d 14 d2          	lea    (%rdx,%rdx,8),%rdx
  402fa3:	49 8d 14 d0          	lea    (%r8,%rdx,8),%rdx
  402fa7:	c5 f8 11 02          	vmovups %xmm0,(%rdx)
  402fab:	c5 f8 10 48 10       	vmovups 0x10(%rax),%xmm1
  402fb0:	c5 f8 11 4a 10       	vmovups %xmm1,0x10(%rdx)
  402fb5:	c5 f8 10 50 20       	vmovups 0x20(%rax),%xmm2
  402fba:	c5 f8 11 52 20       	vmovups %xmm2,0x20(%rdx)
  402fbf:	c5 f8 10 58 30       	vmovups 0x30(%rax),%xmm3
  402fc4:	c5 f8 11 5a 30       	vmovups %xmm3,0x30(%rdx)
  402fc9:	48 8b 40 40          	mov    0x40(%rax),%rax
  402fcd:	48 89 42 40          	mov    %rax,0x40(%rdx)
  402fd1:	4c 8b 0d 80 43 20 00 	mov    0x204380(%rip),%r9        # 607358 <net+0x238>
  402fd8:	48 ff c1             	inc    %rcx
  402fdb:	48 83 c6 48          	add    $0x48,%rsi
  402fdf:	48 39 f9             	cmp    %rdi,%rcx
  402fe2:	75 ac                	jne    402f90 <refreshPositions.constprop.25+0xa0>
  402fe4:	48 8d 04 ff          	lea    (%rdi,%rdi,8),%rax
  402fe8:	4c 89 05 69 43 20 00 	mov    %r8,0x204369(%rip)        # 607358 <net+0x238>
  402fef:	4c 89 0d 72 43 20 00 	mov    %r9,0x204372(%rip)        # 607368 <net+0x248>
  402ff6:	49 8d 04 c0          	lea    (%r8,%rax,8),%rax
  402ffa:	48 89 05 5f 43 20 00 	mov    %rax,0x20435f(%rip)        # 607360 <net+0x240>
  403001:	31 c0                	xor    %eax,%eax
  403003:	c3                   	retq   
  403004:	66 90                	xchg   %ax,%ax
  403006:	66 2e 0f 1f 84 00 00 	nopw   %cs:0x0(%rax,%rax,1)
  40300d:	00 00 00 

0000000000403010 <cost_compare>:
  403010:	48 8b 16             	mov    (%rsi),%rdx
  403013:	48 8b 0f             	mov    (%rdi),%rcx
  403016:	b8 01 00 00 00       	mov    $0x1,%eax
  40301b:	48 8b 72 10          	mov    0x10(%rdx),%rsi
  40301f:	48 39 71 10          	cmp    %rsi,0x10(%rcx)
  403023:	7c 1b                	jl     403040 <cost_compare+0x30>
  403025:	b8 ff ff ff ff       	mov    $0xffffffff,%eax
  40302a:	7f 14                	jg     403040 <cost_compare+0x30>
  40302c:	48 8b 09             	mov    (%rcx),%rcx
  40302f:	48 8b 02             	mov    (%rdx),%rax
  403032:	8b 00                	mov    (%rax),%eax
  403034:	39 01                	cmp    %eax,(%rcx)
  403036:	0f 9f c0             	setg   %al
  403039:	0f b6 c0             	movzbl %al,%eax
  40303c:	8d 44 00 ff          	lea    -0x1(%rax,%rax,1),%eax
  403040:	c3                   	retq   
  403041:	0f 1f 44 00 00       	nopl   0x0(%rax,%rax,1)
  403046:	66 2e 0f 1f 84 00 00 	nopw   %cs:0x0(%rax,%rax,1)
  40304d:	00 00 00 

0000000000403050 <spec_qsort.constprop.19>:
  403050:	41 57                	push   %r15
  403052:	41 56                	push   %r14
  403054:	41 55                	push   %r13
  403056:	41 54                	push   %r12
  403058:	49 89 fd             	mov    %rdi,%r13
  40305b:	49 89 f4             	mov    %rsi,%r12
  40305e:	55                   	push   %rbp
  40305f:	53                   	push   %rbx
  403060:	48 83 ec 38          	sub    $0x38,%rsp
  403064:	45 31 f6             	xor    %r14d,%r14d
  403067:	41 f6 c5 07          	test   $0x7,%r13b
  40306b:	41 0f 95 c6          	setne  %r14b
  40306f:	45 31 ff             	xor    %r15d,%r15d
  403072:	45 01 f6             	add    %r14d,%r14d
  403075:	41 f6 c5 03          	test   $0x3,%r13b
  403079:	41 0f 95 c7          	setne  %r15b
  40307d:	41 ff c7             	inc    %r15d
  403080:	49 83 fc 06          	cmp    $0x6,%r12
  403084:	0f 86 91 0f 00 00    	jbe    40401b <spec_qsort.constprop.19+0xfcb>
  40308a:	4c 89 e0             	mov    %r12,%rax
  40308d:	4a 8d 0c e5 f8 ff ff 	lea    -0x8(,%r12,8),%rcx
  403094:	ff 
  403095:	48 d1 e8             	shr    %rax
  403098:	49 8d 54 0d 00       	lea    0x0(%r13,%rcx,1),%rdx
  40309d:	49 8d 44 c5 00       	lea    0x0(%r13,%rax,8),%rax
  4030a2:	49 83 fc 07          	cmp    $0x7,%r12
  4030a6:	74 68                	je     403110 <spec_qsort.constprop.19+0xc0>
  4030a8:	48 8b 32             	mov    (%rdx),%rsi
  4030ab:	4c 8b 00             	mov    (%rax),%r8
  4030ae:	49 89 d1             	mov    %rdx,%r9
  4030b1:	48 8b 5e 10          	mov    0x10(%rsi),%rbx
  4030b5:	49 8b 78 10          	mov    0x10(%r8),%rdi
  4030b9:	48 89 1c 24          	mov    %rbx,(%rsp)
  4030bd:	4c 89 eb             	mov    %r13,%rbx
  4030c0:	49 83 fc 28          	cmp    $0x28,%r12
  4030c4:	0f 87 bc 09 00 00    	ja     403a86 <spec_qsort.constprop.19+0xa36>
  4030ca:	4c 8b 13             	mov    (%rbx),%r10
  4030cd:	4d 8b 5a 10          	mov    0x10(%r10),%r11
  4030d1:	4c 89 5c 24 08       	mov    %r11,0x8(%rsp)
  4030d6:	4c 39 df             	cmp    %r11,%rdi
  4030d9:	7f 18                	jg     4030f3 <spec_qsort.constprop.19+0xa3>
  4030db:	0f 8c 0b 01 00 00    	jl     4031ec <spec_qsort.constprop.19+0x19c>
  4030e1:	49 8b 28             	mov    (%r8),%rbp
  4030e4:	4d 8b 1a             	mov    (%r10),%r11
  4030e7:	8b 6d 00             	mov    0x0(%rbp),%ebp
  4030ea:	41 39 2b             	cmp    %ebp,(%r11)
  4030ed:	0f 8e f9 00 00 00    	jle    4031ec <spec_qsort.constprop.19+0x19c>
  4030f3:	48 3b 3c 24          	cmp    (%rsp),%rdi
  4030f7:	7c 17                	jl     403110 <spec_qsort.constprop.19+0xc0>
  4030f9:	0f 8f e7 02 00 00    	jg     4033e6 <spec_qsort.constprop.19+0x396>
  4030ff:	48 8b 3e             	mov    (%rsi),%rdi
  403102:	4d 8b 00             	mov    (%r8),%r8
  403105:	8b 3f                	mov    (%rdi),%edi
  403107:	41 39 38             	cmp    %edi,(%r8)
  40310a:	0f 8e d6 02 00 00    	jle    4033e6 <spec_qsort.constprop.19+0x396>
  403110:	45 85 f6             	test   %r14d,%r14d
  403113:	0f 85 22 01 00 00    	jne    40323b <spec_qsort.constprop.19+0x1eb>
  403119:	49 8b 75 00          	mov    0x0(%r13),%rsi
  40311d:	48 8b 38             	mov    (%rax),%rdi
  403120:	49 89 7d 00          	mov    %rdi,0x0(%r13)
  403124:	48 89 30             	mov    %rsi,(%rax)
  403127:	49 8d 5d 08          	lea    0x8(%r13),%rbx
  40312b:	48 39 d3             	cmp    %rdx,%rbx
  40312e:	0f 87 a4 01 00 00    	ja     4032d8 <spec_qsort.constprop.19+0x288>
  403134:	48 89 df             	mov    %rbx,%rdi
  403137:	48 89 d0             	mov    %rdx,%rax
  40313a:	45 31 db             	xor    %r11d,%r11d
  40313d:	0f 1f 00             	nopl   (%rax)
  403140:	4d 8b 4d 00          	mov    0x0(%r13),%r9
  403144:	48 8b 37             	mov    (%rdi),%rsi
  403147:	49 89 fa             	mov    %rdi,%r10
  40314a:	4d 8b 41 10          	mov    0x10(%r9),%r8
  40314e:	4c 39 46 10          	cmp    %r8,0x10(%rsi)
  403152:	0f 8c ac 01 00 00    	jl     403304 <spec_qsort.constprop.19+0x2b4>
  403158:	7f 11                	jg     40316b <spec_qsort.constprop.19+0x11b>
  40315a:	48 8b 2e             	mov    (%rsi),%rbp
  40315d:	49 8b 31             	mov    (%r9),%rsi
  403160:	8b 36                	mov    (%rsi),%esi
  403162:	39 75 00             	cmp    %esi,0x0(%rbp)
  403165:	0f 8f 99 01 00 00    	jg     403304 <spec_qsort.constprop.19+0x2b4>
  40316b:	48 83 c7 08          	add    $0x8,%rdi
  40316f:	49 89 fa             	mov    %rdi,%r10
  403172:	48 39 c7             	cmp    %rax,%rdi
  403175:	76 c9                	jbe    403140 <spec_qsort.constprop.19+0xf0>
  403177:	4e 8d 04 e5 00 00 00 	lea    0x0(,%r12,8),%r8
  40317e:	00 
  40317f:	4b 8d 6c 05 00       	lea    0x0(%r13,%r8,1),%rbp
  403184:	45 85 db             	test   %r11d,%r11d
  403187:	0f 84 da 10 00 00    	je     404267 <spec_qsort.constprop.19+0x1217>
  40318d:	4c 89 d6             	mov    %r10,%rsi
  403190:	bf 08 00 00 00       	mov    $0x8,%edi
  403195:	48 29 de             	sub    %rbx,%rsi
  403198:	48 83 fe 08          	cmp    $0x8,%rsi
  40319c:	48 0f 4e fe          	cmovle %rsi,%rdi
  4031a0:	48 29 c2             	sub    %rax,%rdx
  4031a3:	4c 89 c0             	mov    %r8,%rax
  4031a6:	48 29 c8             	sub    %rcx,%rax
  4031a9:	49 89 d4             	mov    %rdx,%r12
  4031ac:	48 83 e8 08          	sub    $0x8,%rax
  4031b0:	48 39 d0             	cmp    %rdx,%rax
  4031b3:	48 0f 4f c2          	cmovg  %rdx,%rax
  4031b7:	48 85 ff             	test   %rdi,%rdi
  4031ba:	0f 85 6a 03 00 00    	jne    40352a <spec_qsort.constprop.19+0x4da>
  4031c0:	48 85 c0             	test   %rax,%rax
  4031c3:	0f 85 a7 07 00 00    	jne    403970 <spec_qsort.constprop.19+0x920>
  4031c9:	48 83 fe 08          	cmp    $0x8,%rsi
  4031cd:	0f 87 46 03 00 00    	ja     403519 <spec_qsort.constprop.19+0x4c9>
  4031d3:	49 83 fc 08          	cmp    $0x8,%r12
  4031d7:	0f 86 09 01 00 00    	jbe    4032e6 <spec_qsort.constprop.19+0x296>
  4031dd:	4c 29 e5             	sub    %r12,%rbp
  4031e0:	49 c1 ec 03          	shr    $0x3,%r12
  4031e4:	49 89 ed             	mov    %rbp,%r13
  4031e7:	e9 78 fe ff ff       	jmpq   403064 <spec_qsort.constprop.19+0x14>
  4031ec:	48 3b 3c 24          	cmp    (%rsp),%rdi
  4031f0:	7c 17                	jl     403209 <spec_qsort.constprop.19+0x1b9>
  4031f2:	0f 8f 18 ff ff ff    	jg     403110 <spec_qsort.constprop.19+0xc0>
  4031f8:	48 8b 3e             	mov    (%rsi),%rdi
  4031fb:	4d 8b 00             	mov    (%r8),%r8
  4031fe:	8b 3f                	mov    (%rdi),%edi
  403200:	41 39 38             	cmp    %edi,(%r8)
  403203:	0f 8e 07 ff ff ff    	jle    403110 <spec_qsort.constprop.19+0xc0>
  403209:	48 89 d8             	mov    %rbx,%rax
  40320c:	4c 8b 1c 24          	mov    (%rsp),%r11
  403210:	4c 39 5c 24 08       	cmp    %r11,0x8(%rsp)
  403215:	0f 8c f5 fe ff ff    	jl     403110 <spec_qsort.constprop.19+0xc0>
  40321b:	4c 89 c8             	mov    %r9,%rax
  40321e:	0f 8f ec fe ff ff    	jg     403110 <spec_qsort.constprop.19+0xc0>
  403224:	49 8b 3a             	mov    (%r10),%rdi
  403227:	48 8b 36             	mov    (%rsi),%rsi
  40322a:	8b 36                	mov    (%rsi),%esi
  40322c:	39 37                	cmp    %esi,(%rdi)
  40322e:	48 0f 4f c3          	cmovg  %rbx,%rax
  403232:	45 85 f6             	test   %r14d,%r14d
  403235:	0f 84 de fe ff ff    	je     403119 <spec_qsort.constprop.19+0xc9>
  40323b:	41 83 ff 01          	cmp    $0x1,%r15d
  40323f:	0f 84 48 0f 00 00    	je     40418d <spec_qsort.constprop.19+0x113d>
  403245:	41 0f b6 75 00       	movzbl 0x0(%r13),%esi
  40324a:	0f b6 38             	movzbl (%rax),%edi
  40324d:	49 8d 5d 08          	lea    0x8(%r13),%rbx
  403251:	41 88 7d 00          	mov    %dil,0x0(%r13)
  403255:	40 88 30             	mov    %sil,(%rax)
  403258:	0f b6 78 01          	movzbl 0x1(%rax),%edi
  40325c:	41 0f b6 75 01       	movzbl 0x1(%r13),%esi
  403261:	41 88 7d 01          	mov    %dil,0x1(%r13)
  403265:	40 88 70 01          	mov    %sil,0x1(%rax)
  403269:	0f b6 78 02          	movzbl 0x2(%rax),%edi
  40326d:	41 0f b6 75 02       	movzbl 0x2(%r13),%esi
  403272:	41 88 7d 02          	mov    %dil,0x2(%r13)
  403276:	40 88 70 02          	mov    %sil,0x2(%rax)
  40327a:	0f b6 78 03          	movzbl 0x3(%rax),%edi
  40327e:	41 0f b6 75 03       	movzbl 0x3(%r13),%esi
  403283:	41 88 7d 03          	mov    %dil,0x3(%r13)
  403287:	40 88 70 03          	mov    %sil,0x3(%rax)
  40328b:	0f b6 78 04          	movzbl 0x4(%rax),%edi
  40328f:	41 0f b6 75 04       	movzbl 0x4(%r13),%esi
  403294:	41 88 7d 04          	mov    %dil,0x4(%r13)
  403298:	40 88 70 04          	mov    %sil,0x4(%rax)
  40329c:	0f b6 78 05          	movzbl 0x5(%rax),%edi
  4032a0:	41 0f b6 75 05       	movzbl 0x5(%r13),%esi
  4032a5:	41 88 7d 05          	mov    %dil,0x5(%r13)
  4032a9:	40 88 70 05          	mov    %sil,0x5(%rax)
  4032ad:	0f b6 78 06          	movzbl 0x6(%rax),%edi
  4032b1:	41 0f b6 75 06       	movzbl 0x6(%r13),%esi
  4032b6:	41 88 7d 06          	mov    %dil,0x6(%r13)
  4032ba:	40 88 70 06          	mov    %sil,0x6(%rax)
  4032be:	0f b6 78 07          	movzbl 0x7(%rax),%edi
  4032c2:	41 0f b6 75 07       	movzbl 0x7(%r13),%esi
  4032c7:	41 88 7d 07          	mov    %dil,0x7(%r13)
  4032cb:	40 88 70 07          	mov    %sil,0x7(%rax)
  4032cf:	48 39 d3             	cmp    %rdx,%rbx
  4032d2:	0f 86 5c fe ff ff    	jbe    403134 <spec_qsort.constprop.19+0xe4>
  4032d8:	4f 8d 64 e5 00       	lea    0x0(%r13,%r12,8),%r12
  4032dd:	4c 39 e3             	cmp    %r12,%rbx
  4032e0:	0f 82 65 01 00 00    	jb     40344b <spec_qsort.constprop.19+0x3fb>
  4032e6:	48 83 c4 38          	add    $0x38,%rsp
  4032ea:	5b                   	pop    %rbx
  4032eb:	5d                   	pop    %rbp
  4032ec:	41 5c                	pop    %r12
  4032ee:	41 5d                	pop    %r13
  4032f0:	41 5e                	pop    %r14
  4032f2:	41 5f                	pop    %r15
  4032f4:	c3                   	retq   
  4032f5:	90                   	nop
  4032f6:	66 2e 0f 1f 84 00 00 	nopw   %cs:0x0(%rax,%rax,1)
  4032fd:	00 00 00 
  403300:	48 83 e8 08          	sub    $0x8,%rax
  403304:	48 39 f8             	cmp    %rdi,%rax
  403307:	0f 82 6a fe ff ff    	jb     403177 <spec_qsort.constprop.19+0x127>
  40330d:	48 8b 30             	mov    (%rax),%rsi
  403310:	4c 3b 46 10          	cmp    0x10(%rsi),%r8
  403314:	7f ea                	jg     403300 <spec_qsort.constprop.19+0x2b0>
  403316:	7c 0d                	jl     403325 <spec_qsort.constprop.19+0x2d5>
  403318:	48 8b 2e             	mov    (%rsi),%rbp
  40331b:	49 8b 31             	mov    (%r9),%rsi
  40331e:	8b 36                	mov    (%rsi),%esi
  403320:	39 75 00             	cmp    %esi,0x0(%rbp)
  403323:	7f db                	jg     403300 <spec_qsort.constprop.19+0x2b0>
  403325:	48 39 f8             	cmp    %rdi,%rax
  403328:	0f 82 49 fe ff ff    	jb     403177 <spec_qsort.constprop.19+0x127>
  40332e:	45 85 f6             	test   %r14d,%r14d
  403331:	0f 84 e9 00 00 00    	je     403420 <spec_qsort.constprop.19+0x3d0>
  403337:	41 83 ff 01          	cmp    $0x1,%r15d
  40333b:	0f 84 bb 01 00 00    	je     4034fc <spec_qsort.constprop.19+0x4ac>
  403341:	0f b6 37             	movzbl (%rdi),%esi
  403344:	44 0f b6 00          	movzbl (%rax),%r8d
  403348:	44 88 07             	mov    %r8b,(%rdi)
  40334b:	40 88 30             	mov    %sil,(%rax)
  40334e:	44 0f b6 40 01       	movzbl 0x1(%rax),%r8d
  403353:	0f b6 77 01          	movzbl 0x1(%rdi),%esi
  403357:	44 88 47 01          	mov    %r8b,0x1(%rdi)
  40335b:	40 88 70 01          	mov    %sil,0x1(%rax)
  40335f:	44 0f b6 40 02       	movzbl 0x2(%rax),%r8d
  403364:	0f b6 77 02          	movzbl 0x2(%rdi),%esi
  403368:	44 88 47 02          	mov    %r8b,0x2(%rdi)
  40336c:	40 88 70 02          	mov    %sil,0x2(%rax)
  403370:	44 0f b6 40 03       	movzbl 0x3(%rax),%r8d
  403375:	0f b6 77 03          	movzbl 0x3(%rdi),%esi
  403379:	44 88 47 03          	mov    %r8b,0x3(%rdi)
  40337d:	40 88 70 03          	mov    %sil,0x3(%rax)
  403381:	44 0f b6 40 04       	movzbl 0x4(%rax),%r8d
  403386:	0f b6 77 04          	movzbl 0x4(%rdi),%esi
  40338a:	44 88 47 04          	mov    %r8b,0x4(%rdi)
  40338e:	40 88 70 04          	mov    %sil,0x4(%rax)
  403392:	44 0f b6 40 05       	movzbl 0x5(%rax),%r8d
  403397:	0f b6 77 05          	movzbl 0x5(%rdi),%esi
  40339b:	44 88 47 05          	mov    %r8b,0x5(%rdi)
  40339f:	40 88 70 05          	mov    %sil,0x5(%rax)
  4033a3:	44 0f b6 40 06       	movzbl 0x6(%rax),%r8d
  4033a8:	0f b6 77 06          	movzbl 0x6(%rdi),%esi
  4033ac:	44 88 47 06          	mov    %r8b,0x6(%rdi)
  4033b0:	40 88 70 06          	mov    %sil,0x6(%rax)
  4033b4:	44 0f b6 40 07       	movzbl 0x7(%rax),%r8d
  4033b9:	0f b6 77 07          	movzbl 0x7(%rdi),%esi
  4033bd:	44 88 47 07          	mov    %r8b,0x7(%rdi)
  4033c1:	40 88 70 07          	mov    %sil,0x7(%rax)
  4033c5:	90                   	nop
  4033c6:	66 2e 0f 1f 84 00 00 	nopw   %cs:0x0(%rax,%rax,1)
  4033cd:	00 00 00 
  4033d0:	48 83 c7 08          	add    $0x8,%rdi
  4033d4:	48 83 e8 08          	sub    $0x8,%rax
  4033d8:	41 bb 01 00 00 00    	mov    $0x1,%r11d
  4033de:	49 89 fa             	mov    %rdi,%r10
  4033e1:	e9 8c fd ff ff       	jmpq   403172 <spec_qsort.constprop.19+0x122>
  4033e6:	4c 89 c8             	mov    %r9,%rax
  4033e9:	4c 8b 1c 24          	mov    (%rsp),%r11
  4033ed:	4c 39 5c 24 08       	cmp    %r11,0x8(%rsp)
  4033f2:	0f 8c 18 fd ff ff    	jl     403110 <spec_qsort.constprop.19+0xc0>
  4033f8:	48 89 d8             	mov    %rbx,%rax
  4033fb:	0f 8f 0f fd ff ff    	jg     403110 <spec_qsort.constprop.19+0xc0>
  403401:	49 8b 3a             	mov    (%r10),%rdi
  403404:	48 8b 36             	mov    (%rsi),%rsi
  403407:	8b 1e                	mov    (%rsi),%ebx
  403409:	39 1f                	cmp    %ebx,(%rdi)
  40340b:	49 0f 4f c1          	cmovg  %r9,%rax
  40340f:	e9 fc fc ff ff       	jmpq   403110 <spec_qsort.constprop.19+0xc0>
  403414:	66 90                	xchg   %ax,%ax
  403416:	66 2e 0f 1f 84 00 00 	nopw   %cs:0x0(%rax,%rax,1)
  40341d:	00 00 00 
  403420:	48 8b 37             	mov    (%rdi),%rsi
  403423:	4c 8b 00             	mov    (%rax),%r8
  403426:	4c 89 07             	mov    %r8,(%rdi)
  403429:	48 89 30             	mov    %rsi,(%rax)
  40342c:	eb a2                	jmp    4033d0 <spec_qsort.constprop.19+0x380>
  40342e:	66 90                	xchg   %ax,%ax
  403430:	7c 0c                	jl     40343e <spec_qsort.constprop.19+0x3ee>
  403432:	48 8b 12             	mov    (%rdx),%rdx
  403435:	48 8b 09             	mov    (%rcx),%rcx
  403438:	8b 12                	mov    (%rdx),%edx
  40343a:	39 11                	cmp    %edx,(%rcx)
  40343c:	7f 27                	jg     403465 <spec_qsort.constprop.19+0x415>
  40343e:	48 83 c3 08          	add    $0x8,%rbx
  403442:	49 39 dc             	cmp    %rbx,%r12
  403445:	0f 86 9b fe ff ff    	jbe    4032e6 <spec_qsort.constprop.19+0x296>
  40344b:	48 89 d8             	mov    %rbx,%rax
  40344e:	66 90                	xchg   %ax,%ax
  403450:	48 83 e8 08          	sub    $0x8,%rax
  403454:	48 8b 08             	mov    (%rax),%rcx
  403457:	48 8b 50 08          	mov    0x8(%rax),%rdx
  40345b:	48 8b 79 10          	mov    0x10(%rcx),%rdi
  40345f:	48 39 7a 10          	cmp    %rdi,0x10(%rdx)
  403463:	7e cb                	jle    403430 <spec_qsort.constprop.19+0x3e0>
  403465:	45 85 f6             	test   %r14d,%r14d
  403468:	75 15                	jne    40347f <spec_qsort.constprop.19+0x42f>
  40346a:	c5 f8 10 10          	vmovups (%rax),%xmm2
  40346e:	c4 e3 69 0f c2 08    	vpalignr $0x8,%xmm2,%xmm2,%xmm0
  403474:	c5 f8 11 00          	vmovups %xmm0,(%rax)
  403478:	49 39 c5             	cmp    %rax,%r13
  40347b:	72 d3                	jb     403450 <spec_qsort.constprop.19+0x400>
  40347d:	eb bf                	jmp    40343e <spec_qsort.constprop.19+0x3ee>
  40347f:	41 83 ff 01          	cmp    $0x1,%r15d
  403483:	0f 84 e2 05 00 00    	je     403a6b <spec_qsort.constprop.19+0xa1b>
  403489:	0f b6 50 08          	movzbl 0x8(%rax),%edx
  40348d:	0f b6 08             	movzbl (%rax),%ecx
  403490:	88 10                	mov    %dl,(%rax)
  403492:	88 48 08             	mov    %cl,0x8(%rax)
  403495:	0f b6 50 09          	movzbl 0x9(%rax),%edx
  403499:	0f b6 48 01          	movzbl 0x1(%rax),%ecx
  40349d:	88 50 01             	mov    %dl,0x1(%rax)
  4034a0:	88 48 09             	mov    %cl,0x9(%rax)
  4034a3:	0f b6 50 0a          	movzbl 0xa(%rax),%edx
  4034a7:	0f b6 48 02          	movzbl 0x2(%rax),%ecx
  4034ab:	88 50 02             	mov    %dl,0x2(%rax)
  4034ae:	88 48 0a             	mov    %cl,0xa(%rax)
  4034b1:	0f b6 50 0b          	movzbl 0xb(%rax),%edx
  4034b5:	0f b6 48 03          	movzbl 0x3(%rax),%ecx
  4034b9:	88 50 03             	mov    %dl,0x3(%rax)
  4034bc:	88 48 0b             	mov    %cl,0xb(%rax)
  4034bf:	0f b6 50 0c          	movzbl 0xc(%rax),%edx
  4034c3:	0f b6 48 04          	movzbl 0x4(%rax),%ecx
  4034c7:	88 50 04             	mov    %dl,0x4(%rax)
  4034ca:	88 48 0c             	mov    %cl,0xc(%rax)
  4034cd:	0f b6 50 0d          	movzbl 0xd(%rax),%edx
  4034d1:	0f b6 48 05          	movzbl 0x5(%rax),%ecx
  4034d5:	88 50 05             	mov    %dl,0x5(%rax)
  4034d8:	88 48 0d             	mov    %cl,0xd(%rax)
  4034db:	0f b6 50 0e          	movzbl 0xe(%rax),%edx
  4034df:	0f b6 48 06          	movzbl 0x6(%rax),%ecx
  4034e3:	88 50 06             	mov    %dl,0x6(%rax)
  4034e6:	88 48 0e             	mov    %cl,0xe(%rax)
  4034e9:	0f b6 50 0f          	movzbl 0xf(%rax),%edx
  4034ed:	0f b6 48 07          	movzbl 0x7(%rax),%ecx
  4034f1:	88 50 07             	mov    %dl,0x7(%rax)
  4034f4:	88 48 0f             	mov    %cl,0xf(%rax)
  4034f7:	e9 7c ff ff ff       	jmpq   403478 <spec_qsort.constprop.19+0x428>
  4034fc:	8b 37                	mov    (%rdi),%esi
  4034fe:	44 8b 00             	mov    (%rax),%r8d
  403501:	44 89 07             	mov    %r8d,(%rdi)
  403504:	89 30                	mov    %esi,(%rax)
  403506:	44 8b 40 04          	mov    0x4(%rax),%r8d
  40350a:	8b 77 04             	mov    0x4(%rdi),%esi
  40350d:	44 89 47 04          	mov    %r8d,0x4(%rdi)
  403511:	89 70 04             	mov    %esi,0x4(%rax)
  403514:	e9 b7 fe ff ff       	jmpq   4033d0 <spec_qsort.constprop.19+0x380>
  403519:	48 c1 ee 03          	shr    $0x3,%rsi
  40351d:	4c 89 ef             	mov    %r13,%rdi
  403520:	e8 2b fb ff ff       	callq  403050 <spec_qsort.constprop.19>
  403525:	e9 a9 fc ff ff       	jmpq   4031d3 <spec_qsort.constprop.19+0x183>
  40352a:	4c 89 d1             	mov    %r10,%rcx
  40352d:	48 63 d7             	movslq %edi,%rdx
  403530:	48 29 f9             	sub    %rdi,%rcx
  403533:	41 83 fe 02          	cmp    $0x2,%r14d
  403537:	0f 85 1a 07 00 00    	jne    403c57 <spec_qsort.constprop.19+0xc07>
  40353d:	4c 63 c7             	movslq %edi,%r8
  403540:	41 83 ff 01          	cmp    $0x1,%r15d
  403544:	0f 84 8a 08 00 00    	je     403dd4 <spec_qsort.constprop.19+0xd84>
  40354a:	4d 89 d1             	mov    %r10,%r9
  40354d:	4d 8d 5d 10          	lea    0x10(%r13),%r11
  403551:	49 29 f9             	sub    %rdi,%r9
  403554:	49 83 c1 10          	add    $0x10,%r9
  403558:	4d 39 cd             	cmp    %r9,%r13
  40355b:	41 0f 93 c1          	setae  %r9b
  40355f:	4c 39 d9             	cmp    %r11,%rcx
  403562:	41 0f 93 c3          	setae  %r11b
  403566:	45 09 d9             	or     %r11d,%r9d
  403569:	41 83 e1 01          	and    $0x1,%r9d
  40356d:	0f 84 39 0c 00 00    	je     4041ac <spec_qsort.constprop.19+0x115c>
  403573:	83 ff 0f             	cmp    $0xf,%edi
  403576:	0f 8e 30 0c 00 00    	jle    4041ac <spec_qsort.constprop.19+0x115c>
  40357c:	85 ff                	test   %edi,%edi
  40357e:	41 b9 01 00 00 00    	mov    $0x1,%r9d
  403584:	4d 0f 4f c8          	cmovg  %r8,%r9
  403588:	31 d2                	xor    %edx,%edx
  40358a:	4c 89 cf             	mov    %r9,%rdi
  40358d:	48 83 e7 f0          	and    $0xfffffffffffffff0,%rdi
  403591:	c4 c1 78 10 44 15 00 	vmovups 0x0(%r13,%rdx,1),%xmm0
  403598:	c5 f8 10 2c 11       	vmovups (%rcx,%rdx,1),%xmm5
  40359d:	c4 c1 78 11 6c 15 00 	vmovups %xmm5,0x0(%r13,%rdx,1)
  4035a4:	c5 f8 11 04 11       	vmovups %xmm0,(%rcx,%rdx,1)
  4035a9:	48 83 c2 10          	add    $0x10,%rdx
  4035ad:	48 39 fa             	cmp    %rdi,%rdx
  4035b0:	75 df                	jne    403591 <spec_qsort.constprop.19+0x541>
  4035b2:	4d 89 cb             	mov    %r9,%r11
  4035b5:	4c 89 c7             	mov    %r8,%rdi
  4035b8:	49 83 e3 f0          	and    $0xfffffffffffffff0,%r11
  4035bc:	4c 29 df             	sub    %r11,%rdi
  4035bf:	4b 8d 54 1d 00       	lea    0x0(%r13,%r11,1),%rdx
  4035c4:	4c 01 d9             	add    %r11,%rcx
  4035c7:	4d 39 cb             	cmp    %r9,%r11
  4035ca:	0f 84 84 01 00 00    	je     403754 <spec_qsort.constprop.19+0x704>
  4035d0:	44 0f b6 02          	movzbl (%rdx),%r8d
  4035d4:	44 0f b6 09          	movzbl (%rcx),%r9d
  4035d8:	44 88 0a             	mov    %r9b,(%rdx)
  4035db:	44 88 01             	mov    %r8b,(%rcx)
  4035de:	4c 8d 47 ff          	lea    -0x1(%rdi),%r8
  4035e2:	4d 85 c0             	test   %r8,%r8
  4035e5:	0f 8e 69 01 00 00    	jle    403754 <spec_qsort.constprop.19+0x704>
  4035eb:	44 0f b6 42 01       	movzbl 0x1(%rdx),%r8d
  4035f0:	44 0f b6 49 01       	movzbl 0x1(%rcx),%r9d
  4035f5:	44 88 4a 01          	mov    %r9b,0x1(%rdx)
  4035f9:	44 88 41 01          	mov    %r8b,0x1(%rcx)
  4035fd:	48 83 ff 02          	cmp    $0x2,%rdi
  403601:	0f 84 4d 01 00 00    	je     403754 <spec_qsort.constprop.19+0x704>
  403607:	44 0f b6 42 02       	movzbl 0x2(%rdx),%r8d
  40360c:	44 0f b6 49 02       	movzbl 0x2(%rcx),%r9d
  403611:	44 88 4a 02          	mov    %r9b,0x2(%rdx)
  403615:	44 88 41 02          	mov    %r8b,0x2(%rcx)
  403619:	48 83 ff 03          	cmp    $0x3,%rdi
  40361d:	0f 84 31 01 00 00    	je     403754 <spec_qsort.constprop.19+0x704>
  403623:	44 0f b6 42 03       	movzbl 0x3(%rdx),%r8d
  403628:	44 0f b6 49 03       	movzbl 0x3(%rcx),%r9d
  40362d:	44 88 4a 03          	mov    %r9b,0x3(%rdx)
  403631:	44 88 41 03          	mov    %r8b,0x3(%rcx)
  403635:	48 83 ff 04          	cmp    $0x4,%rdi
  403639:	0f 84 15 01 00 00    	je     403754 <spec_qsort.constprop.19+0x704>
  40363f:	44 0f b6 42 04       	movzbl 0x4(%rdx),%r8d
  403644:	44 0f b6 49 04       	movzbl 0x4(%rcx),%r9d
  403649:	44 88 4a 04          	mov    %r9b,0x4(%rdx)
  40364d:	44 88 41 04          	mov    %r8b,0x4(%rcx)
  403651:	48 83 ff 05          	cmp    $0x5,%rdi
  403655:	0f 84 f9 00 00 00    	je     403754 <spec_qsort.constprop.19+0x704>
  40365b:	44 0f b6 42 05       	movzbl 0x5(%rdx),%r8d
  403660:	44 0f b6 49 05       	movzbl 0x5(%rcx),%r9d
  403665:	44 88 4a 05          	mov    %r9b,0x5(%rdx)
  403669:	44 88 41 05          	mov    %r8b,0x5(%rcx)
  40366d:	48 83 ff 06          	cmp    $0x6,%rdi
  403671:	0f 84 dd 00 00 00    	je     403754 <spec_qsort.constprop.19+0x704>
  403677:	44 0f b6 42 06       	movzbl 0x6(%rdx),%r8d
  40367c:	44 0f b6 49 06       	movzbl 0x6(%rcx),%r9d
  403681:	44 88 4a 06          	mov    %r9b,0x6(%rdx)
  403685:	44 88 41 06          	mov    %r8b,0x6(%rcx)
  403689:	48 83 ff 07          	cmp    $0x7,%rdi
  40368d:	0f 84 c1 00 00 00    	je     403754 <spec_qsort.constprop.19+0x704>
  403693:	44 0f b6 42 07       	movzbl 0x7(%rdx),%r8d
  403698:	44 0f b6 49 07       	movzbl 0x7(%rcx),%r9d
  40369d:	44 88 4a 07          	mov    %r9b,0x7(%rdx)
  4036a1:	44 88 41 07          	mov    %r8b,0x7(%rcx)
  4036a5:	48 83 ff 08          	cmp    $0x8,%rdi
  4036a9:	0f 84 a5 00 00 00    	je     403754 <spec_qsort.constprop.19+0x704>
  4036af:	44 0f b6 42 08       	movzbl 0x8(%rdx),%r8d
  4036b4:	44 0f b6 49 08       	movzbl 0x8(%rcx),%r9d
  4036b9:	44 88 4a 08          	mov    %r9b,0x8(%rdx)
  4036bd:	44 88 41 08          	mov    %r8b,0x8(%rcx)
  4036c1:	48 83 ff 09          	cmp    $0x9,%rdi
  4036c5:	0f 84 89 00 00 00    	je     403754 <spec_qsort.constprop.19+0x704>
  4036cb:	44 0f b6 42 09       	movzbl 0x9(%rdx),%r8d
  4036d0:	44 0f b6 49 09       	movzbl 0x9(%rcx),%r9d
  4036d5:	44 88 4a 09          	mov    %r9b,0x9(%rdx)
  4036d9:	44 88 41 09          	mov    %r8b,0x9(%rcx)
  4036dd:	48 83 ff 0a          	cmp    $0xa,%rdi
  4036e1:	74 71                	je     403754 <spec_qsort.constprop.19+0x704>
  4036e3:	44 0f b6 42 0a       	movzbl 0xa(%rdx),%r8d
  4036e8:	44 0f b6 49 0a       	movzbl 0xa(%rcx),%r9d
  4036ed:	44 88 4a 0a          	mov    %r9b,0xa(%rdx)
  4036f1:	44 88 41 0a          	mov    %r8b,0xa(%rcx)
  4036f5:	48 83 ff 0b          	cmp    $0xb,%rdi
  4036f9:	74 59                	je     403754 <spec_qsort.constprop.19+0x704>
  4036fb:	44 0f b6 42 0b       	movzbl 0xb(%rdx),%r8d
  403700:	44 0f b6 49 0b       	movzbl 0xb(%rcx),%r9d
  403705:	44 88 4a 0b          	mov    %r9b,0xb(%rdx)
  403709:	44 88 41 0b          	mov    %r8b,0xb(%rcx)
  40370d:	48 83 ff 0c          	cmp    $0xc,%rdi
  403711:	74 41                	je     403754 <spec_qsort.constprop.19+0x704>
  403713:	44 0f b6 42 0c       	movzbl 0xc(%rdx),%r8d
  403718:	44 0f b6 49 0c       	movzbl 0xc(%rcx),%r9d
  40371d:	44 88 4a 0c          	mov    %r9b,0xc(%rdx)
  403721:	44 88 41 0c          	mov    %r8b,0xc(%rcx)
  403725:	48 83 ff 0d          	cmp    $0xd,%rdi
  403729:	74 29                	je     403754 <spec_qsort.constprop.19+0x704>
  40372b:	44 0f b6 42 0d       	movzbl 0xd(%rdx),%r8d
  403730:	44 0f b6 49 0d       	movzbl 0xd(%rcx),%r9d
  403735:	44 88 4a 0d          	mov    %r9b,0xd(%rdx)
  403739:	44 88 41 0d          	mov    %r8b,0xd(%rcx)
  40373d:	48 83 ff 0e          	cmp    $0xe,%rdi
  403741:	74 11                	je     403754 <spec_qsort.constprop.19+0x704>
  403743:	0f b6 7a 0e          	movzbl 0xe(%rdx),%edi
  403747:	44 0f b6 41 0e       	movzbl 0xe(%rcx),%r8d
  40374c:	44 88 42 0e          	mov    %r8b,0xe(%rdx)
  403750:	40 88 79 0e          	mov    %dil,0xe(%rcx)
  403754:	48 85 c0             	test   %rax,%rax
  403757:	0f 84 6c fa ff ff    	je     4031c9 <spec_qsort.constprop.19+0x179>
  40375d:	48 89 eb             	mov    %rbp,%rbx
  403760:	89 c2                	mov    %eax,%edx
  403762:	48 29 c3             	sub    %rax,%rbx
  403765:	48 89 d8             	mov    %rbx,%rax
  403768:	49 8d 7a 10          	lea    0x10(%r10),%rdi
  40376c:	4c 8d 40 10          	lea    0x10(%rax),%r8
  403770:	48 63 ca             	movslq %edx,%rcx
  403773:	48 39 f8             	cmp    %rdi,%rax
  403776:	40 0f 93 c7          	setae  %dil
  40377a:	4d 39 c2             	cmp    %r8,%r10
  40377d:	41 0f 93 c0          	setae  %r8b
  403781:	44 09 c7             	or     %r8d,%edi
  403784:	83 e7 01             	and    $0x1,%edi
  403787:	0f 84 4b 0a 00 00    	je     4041d8 <spec_qsort.constprop.19+0x1188>
  40378d:	83 fa 0f             	cmp    $0xf,%edx
  403790:	0f 8e 42 0a 00 00    	jle    4041d8 <spec_qsort.constprop.19+0x1188>
  403796:	85 d2                	test   %edx,%edx
  403798:	41 b8 01 00 00 00    	mov    $0x1,%r8d
  40379e:	4c 0f 4f c1          	cmovg  %rcx,%r8
  4037a2:	31 d2                	xor    %edx,%edx
  4037a4:	4c 89 c7             	mov    %r8,%rdi
  4037a7:	48 83 e7 f0          	and    $0xfffffffffffffff0,%rdi
  4037ab:	c4 c1 78 10 04 12    	vmovups (%r10,%rdx,1),%xmm0
  4037b1:	c5 f8 10 34 10       	vmovups (%rax,%rdx,1),%xmm6
  4037b6:	c4 c1 78 11 34 12    	vmovups %xmm6,(%r10,%rdx,1)
  4037bc:	c5 f8 11 04 10       	vmovups %xmm0,(%rax,%rdx,1)
  4037c1:	48 83 c2 10          	add    $0x10,%rdx
  4037c5:	48 39 fa             	cmp    %rdi,%rdx
  4037c8:	75 e1                	jne    4037ab <spec_qsort.constprop.19+0x75b>
  4037ca:	4c 89 c2             	mov    %r8,%rdx
  4037cd:	48 83 e2 f0          	and    $0xfffffffffffffff0,%rdx
  4037d1:	48 29 d1             	sub    %rdx,%rcx
  4037d4:	49 01 d2             	add    %rdx,%r10
  4037d7:	48 01 d0             	add    %rdx,%rax
  4037da:	49 39 d0             	cmp    %rdx,%r8
  4037dd:	0f 84 e6 f9 ff ff    	je     4031c9 <spec_qsort.constprop.19+0x179>
  4037e3:	41 0f b6 12          	movzbl (%r10),%edx
  4037e7:	0f b6 38             	movzbl (%rax),%edi
  4037ea:	41 88 3a             	mov    %dil,(%r10)
  4037ed:	88 10                	mov    %dl,(%rax)
  4037ef:	48 8d 51 ff          	lea    -0x1(%rcx),%rdx
  4037f3:	48 85 d2             	test   %rdx,%rdx
  4037f6:	0f 8e cd f9 ff ff    	jle    4031c9 <spec_qsort.constprop.19+0x179>
  4037fc:	41 0f b6 52 01       	movzbl 0x1(%r10),%edx
  403801:	0f b6 78 01          	movzbl 0x1(%rax),%edi
  403805:	41 88 7a 01          	mov    %dil,0x1(%r10)
  403809:	88 50 01             	mov    %dl,0x1(%rax)
  40380c:	48 83 f9 02          	cmp    $0x2,%rcx
  403810:	0f 84 b3 f9 ff ff    	je     4031c9 <spec_qsort.constprop.19+0x179>
  403816:	41 0f b6 52 02       	movzbl 0x2(%r10),%edx
  40381b:	0f b6 78 02          	movzbl 0x2(%rax),%edi
  40381f:	41 88 7a 02          	mov    %dil,0x2(%r10)
  403823:	88 50 02             	mov    %dl,0x2(%rax)
  403826:	48 83 f9 03          	cmp    $0x3,%rcx
  40382a:	0f 84 99 f9 ff ff    	je     4031c9 <spec_qsort.constprop.19+0x179>
  403830:	41 0f b6 52 03       	movzbl 0x3(%r10),%edx
  403835:	0f b6 78 03          	movzbl 0x3(%rax),%edi
  403839:	41 88 7a 03          	mov    %dil,0x3(%r10)
  40383d:	88 50 03             	mov    %dl,0x3(%rax)
  403840:	48 83 f9 04          	cmp    $0x4,%rcx
  403844:	0f 84 7f f9 ff ff    	je     4031c9 <spec_qsort.constprop.19+0x179>
  40384a:	41 0f b6 52 04       	movzbl 0x4(%r10),%edx
  40384f:	0f b6 78 04          	movzbl 0x4(%rax),%edi
  403853:	41 88 7a 04          	mov    %dil,0x4(%r10)
  403857:	88 50 04             	mov    %dl,0x4(%rax)
  40385a:	48 83 f9 05          	cmp    $0x5,%rcx
  40385e:	0f 84 65 f9 ff ff    	je     4031c9 <spec_qsort.constprop.19+0x179>
  403864:	41 0f b6 52 05       	movzbl 0x5(%r10),%edx
  403869:	0f b6 78 05          	movzbl 0x5(%rax),%edi
  40386d:	41 88 7a 05          	mov    %dil,0x5(%r10)
  403871:	88 50 05             	mov    %dl,0x5(%rax)
  403874:	48 83 f9 06          	cmp    $0x6,%rcx
  403878:	0f 84 4b f9 ff ff    	je     4031c9 <spec_qsort.constprop.19+0x179>
  40387e:	41 0f b6 52 06       	movzbl 0x6(%r10),%edx
  403883:	0f b6 78 06          	movzbl 0x6(%rax),%edi
  403887:	41 88 7a 06          	mov    %dil,0x6(%r10)
  40388b:	88 50 06             	mov    %dl,0x6(%rax)
  40388e:	48 83 f9 07          	cmp    $0x7,%rcx
  403892:	0f 84 31 f9 ff ff    	je     4031c9 <spec_qsort.constprop.19+0x179>
  403898:	41 0f b6 52 07       	movzbl 0x7(%r10),%edx
  40389d:	0f b6 78 07          	movzbl 0x7(%rax),%edi
  4038a1:	41 88 7a 07          	mov    %dil,0x7(%r10)
  4038a5:	88 50 07             	mov    %dl,0x7(%rax)
  4038a8:	48 83 f9 08          	cmp    $0x8,%rcx
  4038ac:	0f 84 17 f9 ff ff    	je     4031c9 <spec_qsort.constprop.19+0x179>
  4038b2:	41 0f b6 52 08       	movzbl 0x8(%r10),%edx
  4038b7:	0f b6 78 08          	movzbl 0x8(%rax),%edi
  4038bb:	41 88 7a 08          	mov    %dil,0x8(%r10)
  4038bf:	88 50 08             	mov    %dl,0x8(%rax)
  4038c2:	48 83 f9 09          	cmp    $0x9,%rcx
  4038c6:	0f 84 fd f8 ff ff    	je     4031c9 <spec_qsort.constprop.19+0x179>
  4038cc:	41 0f b6 52 09       	movzbl 0x9(%r10),%edx
  4038d1:	0f b6 78 09          	movzbl 0x9(%rax),%edi
  4038d5:	41 88 7a 09          	mov    %dil,0x9(%r10)
  4038d9:	88 50 09             	mov    %dl,0x9(%rax)
  4038dc:	48 83 f9 0a          	cmp    $0xa,%rcx
  4038e0:	0f 84 e3 f8 ff ff    	je     4031c9 <spec_qsort.constprop.19+0x179>
  4038e6:	41 0f b6 52 0a       	movzbl 0xa(%r10),%edx
  4038eb:	0f b6 78 0a          	movzbl 0xa(%rax),%edi
  4038ef:	41 88 7a 0a          	mov    %dil,0xa(%r10)
  4038f3:	88 50 0a             	mov    %dl,0xa(%rax)
  4038f6:	48 83 f9 0b          	cmp    $0xb,%rcx
  4038fa:	0f 84 c9 f8 ff ff    	je     4031c9 <spec_qsort.constprop.19+0x179>
  403900:	41 0f b6 52 0b       	movzbl 0xb(%r10),%edx
  403905:	0f b6 78 0b          	movzbl 0xb(%rax),%edi
  403909:	41 88 7a 0b          	mov    %dil,0xb(%r10)
  40390d:	88 50 0b             	mov    %dl,0xb(%rax)
  403910:	48 83 f9 0c          	cmp    $0xc,%rcx
  403914:	0f 84 af f8 ff ff    	je     4031c9 <spec_qsort.constprop.19+0x179>
  40391a:	41 0f b6 52 0c       	movzbl 0xc(%r10),%edx
  40391f:	0f b6 78 0c          	movzbl 0xc(%rax),%edi
  403923:	41 88 7a 0c          	mov    %dil,0xc(%r10)
  403927:	88 50 0c             	mov    %dl,0xc(%rax)
  40392a:	48 83 f9 0d          	cmp    $0xd,%rcx
  40392e:	0f 84 95 f8 ff ff    	je     4031c9 <spec_qsort.constprop.19+0x179>
  403934:	41 0f b6 52 0d       	movzbl 0xd(%r10),%edx
  403939:	0f b6 78 0d          	movzbl 0xd(%rax),%edi
  40393d:	41 88 7a 0d          	mov    %dil,0xd(%r10)
  403941:	88 50 0d             	mov    %dl,0xd(%rax)
  403944:	48 83 f9 0e          	cmp    $0xe,%rcx
  403948:	0f 84 7b f8 ff ff    	je     4031c9 <spec_qsort.constprop.19+0x179>
  40394e:	41 0f b6 52 0e       	movzbl 0xe(%r10),%edx
  403953:	0f b6 48 0e          	movzbl 0xe(%rax),%ecx
  403957:	41 88 4a 0e          	mov    %cl,0xe(%r10)
  40395b:	88 50 0e             	mov    %dl,0xe(%rax)
  40395e:	e9 66 f8 ff ff       	jmpq   4031c9 <spec_qsort.constprop.19+0x179>
  403963:	0f 1f 00             	nopl   (%rax)
  403966:	66 2e 0f 1f 84 00 00 	nopw   %cs:0x0(%rax,%rax,1)
  40396d:	00 00 00 
  403970:	48 89 eb             	mov    %rbp,%rbx
  403973:	48 63 d0             	movslq %eax,%rdx
  403976:	48 29 c3             	sub    %rax,%rbx
  403979:	48 89 d8             	mov    %rbx,%rax
  40397c:	41 83 fe 02          	cmp    $0x2,%r14d
  403980:	0f 85 8e 03 00 00    	jne    403d14 <spec_qsort.constprop.19+0xcc4>
  403986:	41 83 ff 01          	cmp    $0x1,%r15d
  40398a:	0f 85 d8 fd ff ff    	jne    403768 <spec_qsort.constprop.19+0x718>
  403990:	48 8d 48 10          	lea    0x10(%rax),%rcx
  403994:	48 c1 ea 02          	shr    $0x2,%rdx
  403998:	4d 8d 42 10          	lea    0x10(%r10),%r8
  40399c:	49 39 ca             	cmp    %rcx,%r10
  40399f:	48 89 d7             	mov    %rdx,%rdi
  4039a2:	0f 93 c1             	setae  %cl
  4039a5:	4c 39 c0             	cmp    %r8,%rax
  4039a8:	41 0f 93 c0          	setae  %r8b
  4039ac:	44 09 c1             	or     %r8d,%ecx
  4039af:	83 e1 01             	and    $0x1,%ecx
  4039b2:	0f 84 09 05 00 00    	je     403ec1 <spec_qsort.constprop.19+0xe71>
  4039b8:	48 8d 4a fc          	lea    -0x4(%rdx),%rcx
  4039bc:	48 bb fb ff ff ff ff 	movabs $0x7ffffffffffffffb,%rbx
  4039c3:	ff ff 7f 
  4039c6:	48 39 d9             	cmp    %rbx,%rcx
  4039c9:	0f 87 f2 04 00 00    	ja     403ec1 <spec_qsort.constprop.19+0xe71>
  4039cf:	48 85 d2             	test   %rdx,%rdx
  4039d2:	41 b8 01 00 00 00    	mov    $0x1,%r8d
  4039d8:	4c 0f 4f c2          	cmovg  %rdx,%r8
  4039dc:	31 d2                	xor    %edx,%edx
  4039de:	4c 89 c1             	mov    %r8,%rcx
  4039e1:	48 c1 e9 02          	shr    $0x2,%rcx
  4039e5:	48 c1 e1 04          	shl    $0x4,%rcx
  4039e9:	c4 c1 78 10 04 12    	vmovups (%r10,%rdx,1),%xmm0
  4039ef:	c5 f8 10 3c 10       	vmovups (%rax,%rdx,1),%xmm7
  4039f4:	c4 c1 78 11 3c 12    	vmovups %xmm7,(%r10,%rdx,1)
  4039fa:	c5 f8 11 04 10       	vmovups %xmm0,(%rax,%rdx,1)
  4039ff:	48 83 c2 10          	add    $0x10,%rdx
  403a03:	48 39 ca             	cmp    %rcx,%rdx
  403a06:	75 e1                	jne    4039e9 <spec_qsort.constprop.19+0x999>
  403a08:	4c 89 c2             	mov    %r8,%rdx
  403a0b:	48 83 e2 fc          	and    $0xfffffffffffffffc,%rdx
  403a0f:	48 8d 0c 95 00 00 00 	lea    0x0(,%rdx,4),%rcx
  403a16:	00 
  403a17:	48 29 d7             	sub    %rdx,%rdi
  403a1a:	49 01 ca             	add    %rcx,%r10
  403a1d:	48 01 c8             	add    %rcx,%rax
  403a20:	4c 39 c2             	cmp    %r8,%rdx
  403a23:	0f 84 a0 f7 ff ff    	je     4031c9 <spec_qsort.constprop.19+0x179>
  403a29:	41 8b 12             	mov    (%r10),%edx
  403a2c:	8b 08                	mov    (%rax),%ecx
  403a2e:	41 89 0a             	mov    %ecx,(%r10)
  403a31:	89 10                	mov    %edx,(%rax)
  403a33:	48 8d 57 ff          	lea    -0x1(%rdi),%rdx
  403a37:	48 85 d2             	test   %rdx,%rdx
  403a3a:	0f 8e 89 f7 ff ff    	jle    4031c9 <spec_qsort.constprop.19+0x179>
  403a40:	41 8b 52 04          	mov    0x4(%r10),%edx
  403a44:	8b 48 04             	mov    0x4(%rax),%ecx
  403a47:	41 89 4a 04          	mov    %ecx,0x4(%r10)
  403a4b:	89 50 04             	mov    %edx,0x4(%rax)
  403a4e:	48 83 ff 02          	cmp    $0x2,%rdi
  403a52:	0f 84 71 f7 ff ff    	je     4031c9 <spec_qsort.constprop.19+0x179>
  403a58:	41 8b 52 08          	mov    0x8(%r10),%edx
  403a5c:	8b 48 08             	mov    0x8(%rax),%ecx
  403a5f:	41 89 4a 08          	mov    %ecx,0x8(%r10)
  403a63:	89 50 08             	mov    %edx,0x8(%rax)
  403a66:	e9 5e f7 ff ff       	jmpq   4031c9 <spec_qsort.constprop.19+0x179>
  403a6b:	8b 50 08             	mov    0x8(%rax),%edx
  403a6e:	8b 08                	mov    (%rax),%ecx
  403a70:	89 10                	mov    %edx,(%rax)
  403a72:	89 48 08             	mov    %ecx,0x8(%rax)
  403a75:	8b 50 0c             	mov    0xc(%rax),%edx
  403a78:	8b 48 04             	mov    0x4(%rax),%ecx
  403a7b:	89 50 04             	mov    %edx,0x4(%rax)
  403a7e:	89 48 0c             	mov    %ecx,0xc(%rax)
  403a81:	e9 f2 f9 ff ff       	jmpq   403478 <spec_qsort.constprop.19+0x428>
  403a86:	4c 89 e3             	mov    %r12,%rbx
  403a89:	49 8b 6d 00          	mov    0x0(%r13),%rbp
  403a8d:	48 83 e3 f8          	and    $0xfffffffffffffff8,%rbx
  403a91:	4d 8d 5c 5d 00       	lea    0x0(%r13,%rbx,2),%r11
  403a96:	48 89 5c 24 20       	mov    %rbx,0x20(%rsp)
  403a9b:	4c 01 eb             	add    %r13,%rbx
  403a9e:	4c 8b 0b             	mov    (%rbx),%r9
  403aa1:	4c 89 5c 24 08       	mov    %r11,0x8(%rsp)
  403aa6:	4c 8b 5d 10          	mov    0x10(%rbp),%r11
  403aaa:	4d 8b 51 10          	mov    0x10(%r9),%r10
  403aae:	4c 89 5c 24 10       	mov    %r11,0x10(%rsp)
  403ab3:	4c 89 54 24 18       	mov    %r10,0x18(%rsp)
  403ab8:	4d 39 d3             	cmp    %r10,%r11
  403abb:	7c 19                	jl     403ad6 <spec_qsort.constprop.19+0xa86>
  403abd:	0f 8f 1f 04 00 00    	jg     403ee2 <spec_qsort.constprop.19+0xe92>
  403ac3:	4d 8b 11             	mov    (%r9),%r10
  403ac6:	4c 8b 5d 00          	mov    0x0(%rbp),%r11
  403aca:	45 8b 12             	mov    (%r10),%r10d
  403acd:	45 39 13             	cmp    %r10d,(%r11)
  403ad0:	0f 8e 0c 04 00 00    	jle    403ee2 <spec_qsort.constprop.19+0xe92>
  403ad6:	4c 8b 5c 24 08       	mov    0x8(%rsp),%r11
  403adb:	4d 8b 13             	mov    (%r11),%r10
  403ade:	4d 8b 5a 10          	mov    0x10(%r10),%r11
  403ae2:	4c 89 5c 24 28       	mov    %r11,0x28(%rsp)
  403ae7:	4c 39 5c 24 18       	cmp    %r11,0x18(%rsp)
  403aec:	7c 3c                	jl     403b2a <spec_qsort.constprop.19+0xada>
  403aee:	7f 0e                	jg     403afe <spec_qsort.constprop.19+0xaae>
  403af0:	4d 8b 1a             	mov    (%r10),%r11
  403af3:	4d 8b 09             	mov    (%r9),%r9
  403af6:	45 8b 1b             	mov    (%r11),%r11d
  403af9:	45 39 19             	cmp    %r11d,(%r9)
  403afc:	7f 2c                	jg     403b2a <spec_qsort.constprop.19+0xada>
  403afe:	48 8b 5c 24 08       	mov    0x8(%rsp),%rbx
  403b03:	4c 8b 4c 24 28       	mov    0x28(%rsp),%r9
  403b08:	4c 39 4c 24 10       	cmp    %r9,0x10(%rsp)
  403b0d:	7c 1b                	jl     403b2a <spec_qsort.constprop.19+0xada>
  403b0f:	4c 89 eb             	mov    %r13,%rbx
  403b12:	7f 16                	jg     403b2a <spec_qsort.constprop.19+0xada>
  403b14:	4c 8b 4d 00          	mov    0x0(%rbp),%r9
  403b18:	4d 8b 12             	mov    (%r10),%r10
  403b1b:	48 8b 5c 24 08       	mov    0x8(%rsp),%rbx
  403b20:	45 8b 1a             	mov    (%r10),%r11d
  403b23:	45 39 19             	cmp    %r11d,(%r9)
  403b26:	49 0f 4e dd          	cmovle %r13,%rbx
  403b2a:	4c 8b 4c 24 20       	mov    0x20(%rsp),%r9
  403b2f:	4e 8d 1c 08          	lea    (%rax,%r9,1),%r11
  403b33:	49 f7 d9             	neg    %r9
  403b36:	4c 89 5c 24 08       	mov    %r11,0x8(%rsp)
  403b3b:	4e 8d 1c 08          	lea    (%rax,%r9,1),%r11
  403b3f:	4c 89 4c 24 28       	mov    %r9,0x28(%rsp)
  403b44:	4c 89 5c 24 18       	mov    %r11,0x18(%rsp)
  403b49:	4d 8b 13             	mov    (%r11),%r10
  403b4c:	4d 8b 5a 10          	mov    0x10(%r10),%r11
  403b50:	4c 89 5c 24 10       	mov    %r11,0x10(%rsp)
  403b55:	49 39 fb             	cmp    %rdi,%r11
  403b58:	7c 18                	jl     403b72 <spec_qsort.constprop.19+0xb22>
  403b5a:	0f 8f e6 03 00 00    	jg     403f46 <spec_qsort.constprop.19+0xef6>
  403b60:	4d 8b 08             	mov    (%r8),%r9
  403b63:	4d 8b 1a             	mov    (%r10),%r11
  403b66:	45 8b 09             	mov    (%r9),%r9d
  403b69:	45 39 0b             	cmp    %r9d,(%r11)
  403b6c:	0f 8e d4 03 00 00    	jle    403f46 <spec_qsort.constprop.19+0xef6>
  403b72:	4c 8b 5c 24 08       	mov    0x8(%rsp),%r11
  403b77:	4d 8b 0b             	mov    (%r11),%r9
  403b7a:	4d 8b 59 10          	mov    0x10(%r9),%r11
  403b7e:	4c 89 5c 24 20       	mov    %r11,0x20(%rsp)
  403b83:	49 39 fb             	cmp    %rdi,%r11
  403b86:	7f 3d                	jg     403bc5 <spec_qsort.constprop.19+0xb75>
  403b88:	7c 0e                	jl     403b98 <spec_qsort.constprop.19+0xb48>
  403b8a:	49 8b 29             	mov    (%r9),%rbp
  403b8d:	4d 8b 18             	mov    (%r8),%r11
  403b90:	8b 6d 00             	mov    0x0(%rbp),%ebp
  403b93:	41 39 2b             	cmp    %ebp,(%r11)
  403b96:	7f 2d                	jg     403bc5 <spec_qsort.constprop.19+0xb75>
  403b98:	4c 8b 5c 24 20       	mov    0x20(%rsp),%r11
  403b9d:	4c 39 5c 24 10       	cmp    %r11,0x10(%rsp)
  403ba2:	7c 16                	jl     403bba <spec_qsort.constprop.19+0xb6a>
  403ba4:	0f 8f d1 05 00 00    	jg     40417b <spec_qsort.constprop.19+0x112b>
  403baa:	49 8b 01             	mov    (%r9),%rax
  403bad:	49 8b 3a             	mov    (%r10),%rdi
  403bb0:	8b 00                	mov    (%rax),%eax
  403bb2:	39 07                	cmp    %eax,(%rdi)
  403bb4:	0f 8e c1 05 00 00    	jle    40417b <spec_qsort.constprop.19+0x112b>
  403bba:	48 8b 44 24 08       	mov    0x8(%rsp),%rax
  403bbf:	4c 89 df             	mov    %r11,%rdi
  403bc2:	4d 89 c8             	mov    %r9,%r8
  403bc5:	4c 8b 5c 24 28       	mov    0x28(%rsp),%r11
  403bca:	4e 8d 0c 1a          	lea    (%rdx,%r11,1),%r9
  403bce:	4d 01 cb             	add    %r9,%r11
  403bd1:	4d 8b 11             	mov    (%r9),%r10
  403bd4:	49 8b 2b             	mov    (%r11),%rbp
  403bd7:	4c 89 5c 24 20       	mov    %r11,0x20(%rsp)
  403bdc:	4c 89 54 24 08       	mov    %r10,0x8(%rsp)
  403be1:	4c 8b 5d 10          	mov    0x10(%rbp),%r11
  403be5:	4c 89 5c 24 10       	mov    %r11,0x10(%rsp)
  403bea:	4d 8b 5a 10          	mov    0x10(%r10),%r11
  403bee:	4c 89 5c 24 18       	mov    %r11,0x18(%rsp)
  403bf3:	4c 39 5c 24 10       	cmp    %r11,0x10(%rsp)
  403bf8:	7c 1e                	jl     403c18 <spec_qsort.constprop.19+0xbc8>
  403bfa:	0f 8f a9 03 00 00    	jg     403fa9 <spec_qsort.constprop.19+0xf59>
  403c00:	4c 8b 54 24 08       	mov    0x8(%rsp),%r10
  403c05:	4c 8b 5d 00          	mov    0x0(%rbp),%r11
  403c09:	4d 8b 12             	mov    (%r10),%r10
  403c0c:	45 8b 12             	mov    (%r10),%r10d
  403c0f:	45 39 13             	cmp    %r10d,(%r11)
  403c12:	0f 8e 91 03 00 00    	jle    403fa9 <spec_qsort.constprop.19+0xf59>
  403c18:	4c 8b 54 24 18       	mov    0x18(%rsp),%r10
  403c1d:	4c 39 14 24          	cmp    %r10,(%rsp)
  403c21:	0f 8f e6 03 00 00    	jg     40400d <spec_qsort.constprop.19+0xfbd>
  403c27:	0f 8c e4 04 00 00    	jl     404111 <spec_qsort.constprop.19+0x10c1>
  403c2d:	4c 8b 5c 24 08       	mov    0x8(%rsp),%r11
  403c32:	4c 8b 16             	mov    (%rsi),%r10
  403c35:	4d 8b 1b             	mov    (%r11),%r11
  403c38:	45 8b 12             	mov    (%r10),%r10d
  403c3b:	45 39 13             	cmp    %r10d,(%r11)
  403c3e:	0f 8e cd 04 00 00    	jle    404111 <spec_qsort.constprop.19+0x10c1>
  403c44:	48 8b 74 24 18       	mov    0x18(%rsp),%rsi
  403c49:	48 89 34 24          	mov    %rsi,(%rsp)
  403c4d:	48 8b 74 24 08       	mov    0x8(%rsp),%rsi
  403c52:	e9 73 f4 ff ff       	jmpq   4030ca <spec_qsort.constprop.19+0x7a>
  403c57:	48 63 d7             	movslq %edi,%rdx
  403c5a:	48 89 cf             	mov    %rcx,%rdi
  403c5d:	4d 8d 4d 10          	lea    0x10(%r13),%r9
  403c61:	48 83 c7 10          	add    $0x10,%rdi
  403c65:	48 c1 ea 03          	shr    $0x3,%rdx
  403c69:	49 39 fd             	cmp    %rdi,%r13
  403c6c:	49 89 d0             	mov    %rdx,%r8
  403c6f:	40 0f 93 c7          	setae  %dil
  403c73:	4c 39 c9             	cmp    %r9,%rcx
  403c76:	41 0f 93 c1          	setae  %r9b
  403c7a:	44 09 cf             	or     %r9d,%edi
  403c7d:	83 e7 01             	and    $0x1,%edi
  403c80:	0f 84 cf 04 00 00    	je     404155 <spec_qsort.constprop.19+0x1105>
  403c86:	48 8d 7a fd          	lea    -0x3(%rdx),%rdi
  403c8a:	48 bb fc ff ff ff ff 	movabs $0x7ffffffffffffffc,%rbx
  403c91:	ff ff 7f 
  403c94:	48 39 df             	cmp    %rbx,%rdi
  403c97:	0f 87 b8 04 00 00    	ja     404155 <spec_qsort.constprop.19+0x1105>
  403c9d:	48 85 d2             	test   %rdx,%rdx
  403ca0:	41 b8 01 00 00 00    	mov    $0x1,%r8d
  403ca6:	4c 0f 4f c2          	cmovg  %rdx,%r8
  403caa:	31 d2                	xor    %edx,%edx
  403cac:	4c 89 c7             	mov    %r8,%rdi
  403caf:	48 d1 ef             	shr    %rdi
  403cb2:	48 c1 e7 04          	shl    $0x4,%rdi
  403cb6:	c4 c1 78 10 44 15 00 	vmovups 0x0(%r13,%rdx,1),%xmm0
  403cbd:	c5 f8 10 1c 11       	vmovups (%rcx,%rdx,1),%xmm3
  403cc2:	c4 c1 78 11 5c 15 00 	vmovups %xmm3,0x0(%r13,%rdx,1)
  403cc9:	c5 f8 11 04 11       	vmovups %xmm0,(%rcx,%rdx,1)
  403cce:	48 83 c2 10          	add    $0x10,%rdx
  403cd2:	48 39 fa             	cmp    %rdi,%rdx
  403cd5:	75 df                	jne    403cb6 <spec_qsort.constprop.19+0xc66>
  403cd7:	4d 89 c1             	mov    %r8,%r9
  403cda:	49 83 e1 fe          	and    $0xfffffffffffffffe,%r9
  403cde:	4a 8d 14 cd 00 00 00 	lea    0x0(,%r9,8),%rdx
  403ce5:	00 
  403ce6:	49 8d 7c 15 00       	lea    0x0(%r13,%rdx,1),%rdi
  403ceb:	48 01 d1             	add    %rdx,%rcx
  403cee:	4d 39 c1             	cmp    %r8,%r9
  403cf1:	74 0c                	je     403cff <spec_qsort.constprop.19+0xcaf>
  403cf3:	48 8b 17             	mov    (%rdi),%rdx
  403cf6:	4c 8b 01             	mov    (%rcx),%r8
  403cf9:	4c 89 07             	mov    %r8,(%rdi)
  403cfc:	48 89 11             	mov    %rdx,(%rcx)
  403cff:	48 85 c0             	test   %rax,%rax
  403d02:	0f 84 c1 f4 ff ff    	je     4031c9 <spec_qsort.constprop.19+0x179>
  403d08:	48 89 eb             	mov    %rbp,%rbx
  403d0b:	48 63 d0             	movslq %eax,%rdx
  403d0e:	48 29 c3             	sub    %rax,%rbx
  403d11:	48 89 d8             	mov    %rbx,%rax
  403d14:	49 8d 4a 10          	lea    0x10(%r10),%rcx
  403d18:	48 c1 ea 03          	shr    $0x3,%rdx
  403d1c:	4c 8d 40 10          	lea    0x10(%rax),%r8
  403d20:	48 39 c8             	cmp    %rcx,%rax
  403d23:	48 89 d7             	mov    %rdx,%rdi
  403d26:	0f 93 c1             	setae  %cl
  403d29:	4d 39 c2             	cmp    %r8,%r10
  403d2c:	41 0f 93 c0          	setae  %r8b
  403d30:	44 09 c1             	or     %r8d,%ecx
  403d33:	83 e1 01             	and    $0x1,%ecx
  403d36:	74 79                	je     403db1 <spec_qsort.constprop.19+0xd61>
  403d38:	48 8d 4a fd          	lea    -0x3(%rdx),%rcx
  403d3c:	48 bb fc ff ff ff ff 	movabs $0x7ffffffffffffffc,%rbx
  403d43:	ff ff 7f 
  403d46:	48 39 d9             	cmp    %rbx,%rcx
  403d49:	77 66                	ja     403db1 <spec_qsort.constprop.19+0xd61>
  403d4b:	48 85 d2             	test   %rdx,%rdx
  403d4e:	b9 01 00 00 00       	mov    $0x1,%ecx
  403d53:	48 0f 4f ca          	cmovg  %rdx,%rcx
  403d57:	31 d2                	xor    %edx,%edx
  403d59:	48 89 cf             	mov    %rcx,%rdi
  403d5c:	48 d1 ef             	shr    %rdi
  403d5f:	48 c1 e7 04          	shl    $0x4,%rdi
  403d63:	c4 c1 78 10 04 12    	vmovups (%r10,%rdx,1),%xmm0
  403d69:	c5 f8 10 24 10       	vmovups (%rax,%rdx,1),%xmm4
  403d6e:	c4 c1 78 11 24 12    	vmovups %xmm4,(%r10,%rdx,1)
  403d74:	c5 f8 11 04 10       	vmovups %xmm0,(%rax,%rdx,1)
  403d79:	48 83 c2 10          	add    $0x10,%rdx
  403d7d:	48 39 d7             	cmp    %rdx,%rdi
  403d80:	75 e1                	jne    403d63 <spec_qsort.constprop.19+0xd13>
  403d82:	48 89 cf             	mov    %rcx,%rdi
  403d85:	48 83 e7 fe          	and    $0xfffffffffffffffe,%rdi
  403d89:	48 8d 14 fd 00 00 00 	lea    0x0(,%rdi,8),%rdx
  403d90:	00 
  403d91:	49 01 d2             	add    %rdx,%r10
  403d94:	48 01 d0             	add    %rdx,%rax
  403d97:	48 39 cf             	cmp    %rcx,%rdi
  403d9a:	0f 84 29 f4 ff ff    	je     4031c9 <spec_qsort.constprop.19+0x179>
  403da0:	49 8b 12             	mov    (%r10),%rdx
  403da3:	48 8b 08             	mov    (%rax),%rcx
  403da6:	49 89 0a             	mov    %rcx,(%r10)
  403da9:	48 89 10             	mov    %rdx,(%rax)
  403dac:	e9 18 f4 ff ff       	jmpq   4031c9 <spec_qsort.constprop.19+0x179>
  403db1:	49 8b 12             	mov    (%r10),%rdx
  403db4:	48 8b 08             	mov    (%rax),%rcx
  403db7:	49 83 c2 08          	add    $0x8,%r10
  403dbb:	48 83 c0 08          	add    $0x8,%rax
  403dbf:	48 ff cf             	dec    %rdi
  403dc2:	49 89 4a f8          	mov    %rcx,-0x8(%r10)
  403dc6:	48 89 50 f8          	mov    %rdx,-0x8(%rax)
  403dca:	48 85 ff             	test   %rdi,%rdi
  403dcd:	7f e2                	jg     403db1 <spec_qsort.constprop.19+0xd61>
  403dcf:	e9 f5 f3 ff ff       	jmpq   4031c9 <spec_qsort.constprop.19+0x179>
  403dd4:	4c 89 d2             	mov    %r10,%rdx
  403dd7:	49 c1 e8 02          	shr    $0x2,%r8
  403ddb:	48 29 fa             	sub    %rdi,%rdx
  403dde:	49 8d 7d 10          	lea    0x10(%r13),%rdi
  403de2:	4d 89 c1             	mov    %r8,%r9
  403de5:	48 83 c2 10          	add    $0x10,%rdx
  403de9:	49 39 d5             	cmp    %rdx,%r13
  403dec:	0f 93 c2             	setae  %dl
  403def:	48 39 f9             	cmp    %rdi,%rcx
  403df2:	40 0f 93 c7          	setae  %dil
  403df6:	09 fa                	or     %edi,%edx
  403df8:	83 e2 01             	and    $0x1,%edx
  403dfb:	0f 84 fe 03 00 00    	je     4041ff <spec_qsort.constprop.19+0x11af>
  403e01:	49 8d 50 fc          	lea    -0x4(%r8),%rdx
  403e05:	48 bb fb ff ff ff ff 	movabs $0x7ffffffffffffffb,%rbx
  403e0c:	ff ff 7f 
  403e0f:	48 39 da             	cmp    %rbx,%rdx
  403e12:	0f 87 e7 03 00 00    	ja     4041ff <spec_qsort.constprop.19+0x11af>
  403e18:	4d 85 c0             	test   %r8,%r8
  403e1b:	41 b9 01 00 00 00    	mov    $0x1,%r9d
  403e21:	4d 0f 4f c8          	cmovg  %r8,%r9
  403e25:	31 d2                	xor    %edx,%edx
  403e27:	4c 89 cf             	mov    %r9,%rdi
  403e2a:	48 c1 ef 02          	shr    $0x2,%rdi
  403e2e:	48 c1 e7 04          	shl    $0x4,%rdi
  403e32:	c4 c1 78 10 44 15 00 	vmovups 0x0(%r13,%rdx,1),%xmm0
  403e39:	c5 f8 10 3c 11       	vmovups (%rcx,%rdx,1),%xmm7
  403e3e:	c4 c1 78 11 7c 15 00 	vmovups %xmm7,0x0(%r13,%rdx,1)
  403e45:	c5 f8 11 04 11       	vmovups %xmm0,(%rcx,%rdx,1)
  403e4a:	48 83 c2 10          	add    $0x10,%rdx
  403e4e:	48 39 fa             	cmp    %rdi,%rdx
  403e51:	75 df                	jne    403e32 <spec_qsort.constprop.19+0xde2>
  403e53:	4c 89 ca             	mov    %r9,%rdx
  403e56:	48 83 e2 fc          	and    $0xfffffffffffffffc,%rdx
  403e5a:	48 8d 3c 95 00 00 00 	lea    0x0(,%rdx,4),%rdi
  403e61:	00 
  403e62:	49 29 d0             	sub    %rdx,%r8
  403e65:	4d 8d 5c 3d 00       	lea    0x0(%r13,%rdi,1),%r11
  403e6a:	48 01 f9             	add    %rdi,%rcx
  403e6d:	49 39 d1             	cmp    %rdx,%r9
  403e70:	74 35                	je     403ea7 <spec_qsort.constprop.19+0xe57>
  403e72:	41 8b 13             	mov    (%r11),%edx
  403e75:	8b 39                	mov    (%rcx),%edi
  403e77:	41 89 3b             	mov    %edi,(%r11)
  403e7a:	89 11                	mov    %edx,(%rcx)
  403e7c:	49 8d 50 ff          	lea    -0x1(%r8),%rdx
  403e80:	48 85 d2             	test   %rdx,%rdx
  403e83:	7e 22                	jle    403ea7 <spec_qsort.constprop.19+0xe57>
  403e85:	41 8b 53 04          	mov    0x4(%r11),%edx
  403e89:	8b 79 04             	mov    0x4(%rcx),%edi
  403e8c:	41 89 7b 04          	mov    %edi,0x4(%r11)
  403e90:	89 51 04             	mov    %edx,0x4(%rcx)
  403e93:	49 83 f8 02          	cmp    $0x2,%r8
  403e97:	74 0e                	je     403ea7 <spec_qsort.constprop.19+0xe57>
  403e99:	41 8b 53 08          	mov    0x8(%r11),%edx
  403e9d:	8b 79 08             	mov    0x8(%rcx),%edi
  403ea0:	41 89 7b 08          	mov    %edi,0x8(%r11)
  403ea4:	89 51 08             	mov    %edx,0x8(%rcx)
  403ea7:	48 85 c0             	test   %rax,%rax
  403eaa:	0f 84 19 f3 ff ff    	je     4031c9 <spec_qsort.constprop.19+0x179>
  403eb0:	48 89 eb             	mov    %rbp,%rbx
  403eb3:	48 63 d0             	movslq %eax,%rdx
  403eb6:	48 29 c3             	sub    %rax,%rbx
  403eb9:	48 89 d8             	mov    %rbx,%rax
  403ebc:	e9 cf fa ff ff       	jmpq   403990 <spec_qsort.constprop.19+0x940>
  403ec1:	41 8b 0a             	mov    (%r10),%ecx
  403ec4:	8b 38                	mov    (%rax),%edi
  403ec6:	49 83 c2 04          	add    $0x4,%r10
  403eca:	48 83 c0 04          	add    $0x4,%rax
  403ece:	48 ff ca             	dec    %rdx
  403ed1:	41 89 7a fc          	mov    %edi,-0x4(%r10)
  403ed5:	89 48 fc             	mov    %ecx,-0x4(%rax)
  403ed8:	48 85 d2             	test   %rdx,%rdx
  403edb:	7f e4                	jg     403ec1 <spec_qsort.constprop.19+0xe71>
  403edd:	e9 e7 f2 ff ff       	jmpq   4031c9 <spec_qsort.constprop.19+0x179>
  403ee2:	4c 8b 5c 24 08       	mov    0x8(%rsp),%r11
  403ee7:	4d 8b 13             	mov    (%r11),%r10
  403eea:	4d 8b 5a 10          	mov    0x10(%r10),%r11
  403eee:	4c 89 5c 24 28       	mov    %r11,0x28(%rsp)
  403ef3:	4c 39 5c 24 18       	cmp    %r11,0x18(%rsp)
  403ef8:	7c 18                	jl     403f12 <spec_qsort.constprop.19+0xec2>
  403efa:	0f 8f 2a fc ff ff    	jg     403b2a <spec_qsort.constprop.19+0xada>
  403f00:	4d 8b 1a             	mov    (%r10),%r11
  403f03:	4d 8b 09             	mov    (%r9),%r9
  403f06:	45 8b 1b             	mov    (%r11),%r11d
  403f09:	45 39 19             	cmp    %r11d,(%r9)
  403f0c:	0f 8e 18 fc ff ff    	jle    403b2a <spec_qsort.constprop.19+0xada>
  403f12:	4c 89 eb             	mov    %r13,%rbx
  403f15:	4c 8b 4c 24 28       	mov    0x28(%rsp),%r9
  403f1a:	4c 39 4c 24 10       	cmp    %r9,0x10(%rsp)
  403f1f:	0f 8c 05 fc ff ff    	jl     403b2a <spec_qsort.constprop.19+0xada>
  403f25:	48 8b 5c 24 08       	mov    0x8(%rsp),%rbx
  403f2a:	0f 8f fa fb ff ff    	jg     403b2a <spec_qsort.constprop.19+0xada>
  403f30:	4c 8b 4d 00          	mov    0x0(%rbp),%r9
  403f34:	4d 8b 12             	mov    (%r10),%r10
  403f37:	45 8b 1a             	mov    (%r10),%r11d
  403f3a:	45 39 19             	cmp    %r11d,(%r9)
  403f3d:	49 0f 4f dd          	cmovg  %r13,%rbx
  403f41:	e9 e4 fb ff ff       	jmpq   403b2a <spec_qsort.constprop.19+0xada>
  403f46:	4c 8b 5c 24 08       	mov    0x8(%rsp),%r11
  403f4b:	4d 8b 0b             	mov    (%r11),%r9
  403f4e:	4d 8b 59 10          	mov    0x10(%r9),%r11
  403f52:	4c 89 5c 24 20       	mov    %r11,0x20(%rsp)
  403f57:	49 39 fb             	cmp    %rdi,%r11
  403f5a:	7f 18                	jg     403f74 <spec_qsort.constprop.19+0xf24>
  403f5c:	0f 8c 63 fc ff ff    	jl     403bc5 <spec_qsort.constprop.19+0xb75>
  403f62:	49 8b 29             	mov    (%r9),%rbp
  403f65:	4d 8b 18             	mov    (%r8),%r11
  403f68:	8b 6d 00             	mov    0x0(%rbp),%ebp
  403f6b:	41 39 2b             	cmp    %ebp,(%r11)
  403f6e:	0f 8e 51 fc ff ff    	jle    403bc5 <spec_qsort.constprop.19+0xb75>
  403f74:	4c 8b 5c 24 10       	mov    0x10(%rsp),%r11
  403f79:	48 8b 44 24 20       	mov    0x20(%rsp),%rax
  403f7e:	49 39 c3             	cmp    %rax,%r11
  403f81:	7c 16                	jl     403f99 <spec_qsort.constprop.19+0xf49>
  403f83:	0f 8f bd 02 00 00    	jg     404246 <spec_qsort.constprop.19+0x11f6>
  403f89:	49 8b 01             	mov    (%r9),%rax
  403f8c:	49 8b 3a             	mov    (%r10),%rdi
  403f8f:	8b 00                	mov    (%rax),%eax
  403f91:	39 07                	cmp    %eax,(%rdi)
  403f93:	0f 8e 9b 02 00 00    	jle    404234 <spec_qsort.constprop.19+0x11e4>
  403f99:	4c 89 df             	mov    %r11,%rdi
  403f9c:	4d 89 d0             	mov    %r10,%r8
  403f9f:	48 8b 44 24 18       	mov    0x18(%rsp),%rax
  403fa4:	e9 1c fc ff ff       	jmpq   403bc5 <spec_qsort.constprop.19+0xb75>
  403fa9:	4c 8b 54 24 18       	mov    0x18(%rsp),%r10
  403fae:	4c 39 14 24          	cmp    %r10,(%rsp)
  403fb2:	7f 19                	jg     403fcd <spec_qsort.constprop.19+0xf7d>
  403fb4:	7c 57                	jl     40400d <spec_qsort.constprop.19+0xfbd>
  403fb6:	4c 8b 5c 24 08       	mov    0x8(%rsp),%r11
  403fbb:	4c 8b 16             	mov    (%rsi),%r10
  403fbe:	4d 8b 1b             	mov    (%r11),%r11
  403fc1:	45 8b 12             	mov    (%r10),%r10d
  403fc4:	45 39 13             	cmp    %r10d,(%r11)
  403fc7:	0f 8e 77 fc ff ff    	jle    403c44 <spec_qsort.constprop.19+0xbf4>
  403fcd:	4c 8b 5c 24 10       	mov    0x10(%rsp),%r11
  403fd2:	4c 39 1c 24          	cmp    %r11,(%rsp)
  403fd6:	0f 8f 47 02 00 00    	jg     404223 <spec_qsort.constprop.19+0x11d3>
  403fdc:	49 89 d1             	mov    %rdx,%r9
  403fdf:	0f 8c e5 f0 ff ff    	jl     4030ca <spec_qsort.constprop.19+0x7a>
  403fe5:	4c 8b 0e             	mov    (%rsi),%r9
  403fe8:	4c 8b 55 00          	mov    0x0(%rbp),%r10
  403fec:	45 8b 12             	mov    (%r10),%r10d
  403fef:	45 3b 11             	cmp    (%r9),%r10d
  403ff2:	4c 0f 4e 1c 24       	cmovle (%rsp),%r11
  403ff7:	4c 8b 4c 24 20       	mov    0x20(%rsp),%r9
  403ffc:	48 0f 4f f5          	cmovg  %rbp,%rsi
  404000:	4c 0f 4e ca          	cmovle %rdx,%r9
  404004:	4c 89 1c 24          	mov    %r11,(%rsp)
  404008:	e9 bd f0 ff ff       	jmpq   4030ca <spec_qsort.constprop.19+0x7a>
  40400d:	4c 89 14 24          	mov    %r10,(%rsp)
  404011:	48 8b 74 24 08       	mov    0x8(%rsp),%rsi
  404016:	e9 af f0 ff ff       	jmpq   4030ca <spec_qsort.constprop.19+0x7a>
  40401b:	49 8d 75 08          	lea    0x8(%r13),%rsi
  40401f:	4b 8d 7c e5 00       	lea    0x0(%r13,%r12,8),%rdi
  404024:	48 39 fe             	cmp    %rdi,%rsi
  404027:	72 22                	jb     40404b <spec_qsort.constprop.19+0xffb>
  404029:	e9 b8 f2 ff ff       	jmpq   4032e6 <spec_qsort.constprop.19+0x296>
  40402e:	66 90                	xchg   %ax,%ax
  404030:	7c 0c                	jl     40403e <spec_qsort.constprop.19+0xfee>
  404032:	48 8b 12             	mov    (%rdx),%rdx
  404035:	48 8b 09             	mov    (%rcx),%rcx
  404038:	8b 1a                	mov    (%rdx),%ebx
  40403a:	39 19                	cmp    %ebx,(%rcx)
  40403c:	7f 27                	jg     404065 <spec_qsort.constprop.19+0x1015>
  40403e:	48 83 c6 08          	add    $0x8,%rsi
  404042:	48 39 f7             	cmp    %rsi,%rdi
  404045:	0f 86 9b f2 ff ff    	jbe    4032e6 <spec_qsort.constprop.19+0x296>
  40404b:	48 89 f0             	mov    %rsi,%rax
  40404e:	66 90                	xchg   %ax,%ax
  404050:	48 83 e8 08          	sub    $0x8,%rax
  404054:	48 8b 08             	mov    (%rax),%rcx
  404057:	48 8b 50 08          	mov    0x8(%rax),%rdx
  40405b:	48 8b 59 10          	mov    0x10(%rcx),%rbx
  40405f:	48 39 5a 10          	cmp    %rbx,0x10(%rdx)
  404063:	7e cb                	jle    404030 <spec_qsort.constprop.19+0xfe0>
  404065:	45 85 f6             	test   %r14d,%r14d
  404068:	75 16                	jne    404080 <spec_qsort.constprop.19+0x1030>
  40406a:	c5 f8 10 08          	vmovups (%rax),%xmm1
  40406e:	c4 e3 71 0f c1 08    	vpalignr $0x8,%xmm1,%xmm1,%xmm0
  404074:	c5 f8 11 00          	vmovups %xmm0,(%rax)
  404078:	49 39 c5             	cmp    %rax,%r13
  40407b:	72 d3                	jb     404050 <spec_qsort.constprop.19+0x1000>
  40407d:	eb bf                	jmp    40403e <spec_qsort.constprop.19+0xfee>
  40407f:	90                   	nop
  404080:	41 83 ff 01          	cmp    $0x1,%r15d
  404084:	74 70                	je     4040f6 <spec_qsort.constprop.19+0x10a6>
  404086:	0f b6 50 08          	movzbl 0x8(%rax),%edx
  40408a:	0f b6 08             	movzbl (%rax),%ecx
  40408d:	88 10                	mov    %dl,(%rax)
  40408f:	88 48 08             	mov    %cl,0x8(%rax)
  404092:	0f b6 50 09          	movzbl 0x9(%rax),%edx
  404096:	0f b6 48 01          	movzbl 0x1(%rax),%ecx
  40409a:	88 50 01             	mov    %dl,0x1(%rax)
  40409d:	88 48 09             	mov    %cl,0x9(%rax)
  4040a0:	0f b6 50 0a          	movzbl 0xa(%rax),%edx
  4040a4:	0f b6 48 02          	movzbl 0x2(%rax),%ecx
  4040a8:	88 50 02             	mov    %dl,0x2(%rax)
  4040ab:	88 48 0a             	mov    %cl,0xa(%rax)
  4040ae:	0f b6 50 0b          	movzbl 0xb(%rax),%edx
  4040b2:	0f b6 48 03          	movzbl 0x3(%rax),%ecx
  4040b6:	88 50 03             	mov    %dl,0x3(%rax)
  4040b9:	88 48 0b             	mov    %cl,0xb(%rax)
  4040bc:	0f b6 50 0c          	movzbl 0xc(%rax),%edx
  4040c0:	0f b6 48 04          	movzbl 0x4(%rax),%ecx
  4040c4:	88 50 04             	mov    %dl,0x4(%rax)
  4040c7:	88 48 0c             	mov    %cl,0xc(%rax)
  4040ca:	0f b6 50 0d          	movzbl 0xd(%rax),%edx
  4040ce:	0f b6 48 05          	movzbl 0x5(%rax),%ecx
  4040d2:	88 50 05             	mov    %dl,0x5(%rax)
  4040d5:	88 48 0d             	mov    %cl,0xd(%rax)
  4040d8:	0f b6 50 0e          	movzbl 0xe(%rax),%edx
  4040dc:	0f b6 48 06          	movzbl 0x6(%rax),%ecx
  4040e0:	88 50 06             	mov    %dl,0x6(%rax)
  4040e3:	88 48 0e             	mov    %cl,0xe(%rax)
  4040e6:	0f b6 50 0f          	movzbl 0xf(%rax),%edx
  4040ea:	0f b6 48 07          	movzbl 0x7(%rax),%ecx
  4040ee:	88 50 07             	mov    %dl,0x7(%rax)
  4040f1:	88 48 0f             	mov    %cl,0xf(%rax)
  4040f4:	eb 82                	jmp    404078 <spec_qsort.constprop.19+0x1028>
  4040f6:	8b 50 08             	mov    0x8(%rax),%edx
  4040f9:	8b 08                	mov    (%rax),%ecx
  4040fb:	89 10                	mov    %edx,(%rax)
  4040fd:	89 48 08             	mov    %ecx,0x8(%rax)
  404100:	8b 50 0c             	mov    0xc(%rax),%edx
  404103:	8b 48 04             	mov    0x4(%rax),%ecx
  404106:	89 50 04             	mov    %edx,0x4(%rax)
  404109:	89 48 0c             	mov    %ecx,0xc(%rax)
  40410c:	e9 67 ff ff ff       	jmpq   404078 <spec_qsort.constprop.19+0x1028>
  404111:	49 89 d1             	mov    %rdx,%r9
  404114:	4c 8b 54 24 10       	mov    0x10(%rsp),%r10
  404119:	4c 39 14 24          	cmp    %r10,(%rsp)
  40411d:	0f 8f a7 ef ff ff    	jg     4030ca <spec_qsort.constprop.19+0x7a>
  404123:	0f 8c 2d 01 00 00    	jl     404256 <spec_qsort.constprop.19+0x1206>
  404129:	4c 8b 0e             	mov    (%rsi),%r9
  40412c:	4c 8b 55 00          	mov    0x0(%rbp),%r10
  404130:	45 8b 19             	mov    (%r9),%r11d
  404133:	49 89 d1             	mov    %rdx,%r9
  404136:	45 39 1a             	cmp    %r11d,(%r10)
  404139:	0f 8f 8b ef ff ff    	jg     4030ca <spec_qsort.constprop.19+0x7a>
  40413f:	48 8b 74 24 10       	mov    0x10(%rsp),%rsi
  404144:	4c 8b 4c 24 20       	mov    0x20(%rsp),%r9
  404149:	48 89 34 24          	mov    %rsi,(%rsp)
  40414d:	48 89 ee             	mov    %rbp,%rsi
  404150:	e9 75 ef ff ff       	jmpq   4030ca <spec_qsort.constprop.19+0x7a>
  404155:	4c 89 ea             	mov    %r13,%rdx
  404158:	48 8b 3a             	mov    (%rdx),%rdi
  40415b:	4c 8b 09             	mov    (%rcx),%r9
  40415e:	48 83 c2 08          	add    $0x8,%rdx
  404162:	48 83 c1 08          	add    $0x8,%rcx
  404166:	49 ff c8             	dec    %r8
  404169:	4c 89 4a f8          	mov    %r9,-0x8(%rdx)
  40416d:	48 89 79 f8          	mov    %rdi,-0x8(%rcx)
  404171:	4d 85 c0             	test   %r8,%r8
  404174:	7f e2                	jg     404158 <spec_qsort.constprop.19+0x1108>
  404176:	e9 84 fb ff ff       	jmpq   403cff <spec_qsort.constprop.19+0xcaf>
  40417b:	48 8b 7c 24 10       	mov    0x10(%rsp),%rdi
  404180:	4d 89 d0             	mov    %r10,%r8
  404183:	48 8b 44 24 18       	mov    0x18(%rsp),%rax
  404188:	e9 38 fa ff ff       	jmpq   403bc5 <spec_qsort.constprop.19+0xb75>
  40418d:	41 8b 75 00          	mov    0x0(%r13),%esi
  404191:	8b 38                	mov    (%rax),%edi
  404193:	41 89 7d 00          	mov    %edi,0x0(%r13)
  404197:	89 30                	mov    %esi,(%rax)
  404199:	8b 78 04             	mov    0x4(%rax),%edi
  40419c:	41 8b 75 04          	mov    0x4(%r13),%esi
  4041a0:	41 89 7d 04          	mov    %edi,0x4(%r13)
  4041a4:	89 70 04             	mov    %esi,0x4(%rax)
  4041a7:	e9 7b ef ff ff       	jmpq   403127 <spec_qsort.constprop.19+0xd7>
  4041ac:	4c 89 ef             	mov    %r13,%rdi
  4041af:	48 01 ca             	add    %rcx,%rdx
  4041b2:	44 0f b6 07          	movzbl (%rdi),%r8d
  4041b6:	44 0f b6 09          	movzbl (%rcx),%r9d
  4041ba:	48 ff c7             	inc    %rdi
  4041bd:	48 ff c1             	inc    %rcx
  4041c0:	44 88 4f ff          	mov    %r9b,-0x1(%rdi)
  4041c4:	44 88 41 ff          	mov    %r8b,-0x1(%rcx)
  4041c8:	49 89 d0             	mov    %rdx,%r8
  4041cb:	49 29 c8             	sub    %rcx,%r8
  4041ce:	4d 85 c0             	test   %r8,%r8
  4041d1:	7f df                	jg     4041b2 <spec_qsort.constprop.19+0x1162>
  4041d3:	e9 7c f5 ff ff       	jmpq   403754 <spec_qsort.constprop.19+0x704>
  4041d8:	4c 01 d1             	add    %r10,%rcx
  4041db:	41 0f b6 12          	movzbl (%r10),%edx
  4041df:	0f b6 38             	movzbl (%rax),%edi
  4041e2:	49 ff c2             	inc    %r10
  4041e5:	48 ff c0             	inc    %rax
  4041e8:	41 88 7a ff          	mov    %dil,-0x1(%r10)
  4041ec:	88 50 ff             	mov    %dl,-0x1(%rax)
  4041ef:	48 89 ca             	mov    %rcx,%rdx
  4041f2:	4c 29 d2             	sub    %r10,%rdx
  4041f5:	48 85 d2             	test   %rdx,%rdx
  4041f8:	7f e1                	jg     4041db <spec_qsort.constprop.19+0x118b>
  4041fa:	e9 ca ef ff ff       	jmpq   4031c9 <spec_qsort.constprop.19+0x179>
  4041ff:	4c 89 ea             	mov    %r13,%rdx
  404202:	8b 3a                	mov    (%rdx),%edi
  404204:	44 8b 01             	mov    (%rcx),%r8d
  404207:	48 83 c2 04          	add    $0x4,%rdx
  40420b:	48 83 c1 04          	add    $0x4,%rcx
  40420f:	49 ff c9             	dec    %r9
  404212:	44 89 42 fc          	mov    %r8d,-0x4(%rdx)
  404216:	89 79 fc             	mov    %edi,-0x4(%rcx)
  404219:	4d 85 c9             	test   %r9,%r9
  40421c:	7f e4                	jg     404202 <spec_qsort.constprop.19+0x11b2>
  40421e:	e9 84 fc ff ff       	jmpq   403ea7 <spec_qsort.constprop.19+0xe57>
  404223:	4c 89 1c 24          	mov    %r11,(%rsp)
  404227:	48 89 ee             	mov    %rbp,%rsi
  40422a:	4c 8b 4c 24 20       	mov    0x20(%rsp),%r9
  40422f:	e9 96 ee ff ff       	jmpq   4030ca <spec_qsort.constprop.19+0x7a>
  404234:	48 8b 7c 24 20       	mov    0x20(%rsp),%rdi
  404239:	4d 89 c8             	mov    %r9,%r8
  40423c:	48 8b 44 24 08       	mov    0x8(%rsp),%rax
  404241:	e9 7f f9 ff ff       	jmpq   403bc5 <spec_qsort.constprop.19+0xb75>
  404246:	48 89 c7             	mov    %rax,%rdi
  404249:	4d 89 c8             	mov    %r9,%r8
  40424c:	48 8b 44 24 08       	mov    0x8(%rsp),%rax
  404251:	e9 6f f9 ff ff       	jmpq   403bc5 <spec_qsort.constprop.19+0xb75>
  404256:	4c 89 14 24          	mov    %r10,(%rsp)
  40425a:	48 89 ee             	mov    %rbp,%rsi
  40425d:	4c 8b 4c 24 20       	mov    0x20(%rsp),%r9
  404262:	e9 63 ee ff ff       	jmpq   4030ca <spec_qsort.constprop.19+0x7a>
  404267:	49 89 ec             	mov    %rbp,%r12
  40426a:	e9 6e f0 ff ff       	jmpq   4032dd <spec_qsort.constprop.19+0x28d>
  40426f:	90                   	nop

0000000000404270 <arc_compare>:
  404270:	48 8b 16             	mov    (%rsi),%rdx
  404273:	48 8b 0f             	mov    (%rdi),%rcx
  404276:	b8 01 00 00 00       	mov    $0x1,%eax
  40427b:	48 8b 72 38          	mov    0x38(%rdx),%rsi
  40427f:	48 39 71 38          	cmp    %rsi,0x38(%rcx)
  404283:	7f 15                	jg     40429a <arc_compare+0x2a>
  404285:	b8 ff ff ff ff       	mov    $0xffffffff,%eax
  40428a:	7c 0e                	jl     40429a <arc_compare+0x2a>
  40428c:	8b 02                	mov    (%rdx),%eax
  40428e:	39 01                	cmp    %eax,(%rcx)
  404290:	0f 9d c0             	setge  %al
  404293:	0f b6 c0             	movzbl %al,%eax
  404296:	8d 44 00 ff          	lea    -0x1(%rax,%rax,1),%eax
  40429a:	c3                   	retq   
  40429b:	0f 1f 44 00 00       	nopl   0x0(%rax,%rax,1)

00000000004042a0 <spec_qsort.constprop.18>:
  4042a0:	41 57                	push   %r15
  4042a2:	41 56                	push   %r14
  4042a4:	49 89 f6             	mov    %rsi,%r14
  4042a7:	41 55                	push   %r13
  4042a9:	41 54                	push   %r12
  4042ab:	49 89 fc             	mov    %rdi,%r12
  4042ae:	55                   	push   %rbp
  4042af:	53                   	push   %rbx
  4042b0:	48 83 ec 38          	sub    $0x38,%rsp
  4042b4:	45 31 ed             	xor    %r13d,%r13d
  4042b7:	41 f6 c4 07          	test   $0x7,%r12b
  4042bb:	41 0f 95 c5          	setne  %r13b
  4042bf:	45 31 ff             	xor    %r15d,%r15d
  4042c2:	45 01 ed             	add    %r13d,%r13d
  4042c5:	41 f6 c4 03          	test   $0x3,%r12b
  4042c9:	41 0f 95 c7          	setne  %r15b
  4042cd:	41 ff c7             	inc    %r15d
  4042d0:	49 83 fe 06          	cmp    $0x6,%r14
  4042d4:	0f 86 dc 0d 00 00    	jbe    4050b6 <spec_qsort.constprop.18+0xe16>
  4042da:	4c 89 f0             	mov    %r14,%rax
  4042dd:	4a 8d 0c f5 f8 ff ff 	lea    -0x8(,%r14,8),%rcx
  4042e4:	ff 
  4042e5:	48 d1 e8             	shr    %rax
  4042e8:	49 8d 14 0c          	lea    (%r12,%rcx,1),%rdx
  4042ec:	49 8d 04 c4          	lea    (%r12,%rax,8),%rax
  4042f0:	49 83 fe 07          	cmp    $0x7,%r14
  4042f4:	74 5a                	je     404350 <spec_qsort.constprop.18+0xb0>
  4042f6:	48 8b 32             	mov    (%rdx),%rsi
  4042f9:	4c 8b 00             	mov    (%rax),%r8
  4042fc:	49 89 d2             	mov    %rdx,%r10
  4042ff:	4c 89 24 24          	mov    %r12,(%rsp)
  404303:	4c 8b 4e 38          	mov    0x38(%rsi),%r9
  404307:	49 8b 78 38          	mov    0x38(%r8),%rdi
  40430b:	49 83 fe 28          	cmp    $0x28,%r14
  40430f:	0f 87 8e 09 00 00    	ja     404ca3 <spec_qsort.constprop.18+0xa03>
  404315:	48 8b 1c 24          	mov    (%rsp),%rbx
  404319:	4c 8b 1b             	mov    (%rbx),%r11
  40431c:	49 8b 5b 38          	mov    0x38(%r11),%rbx
  404320:	48 39 df             	cmp    %rbx,%rdi
  404323:	7c 12                	jl     404337 <spec_qsort.constprop.18+0x97>
  404325:	0f 8f 25 08 00 00    	jg     404b50 <spec_qsort.constprop.18+0x8b0>
  40432b:	41 8b 28             	mov    (%r8),%ebp
  40432e:	41 39 2b             	cmp    %ebp,(%r11)
  404331:	0f 8c 19 08 00 00    	jl     404b50 <spec_qsort.constprop.18+0x8b0>
  404337:	4c 39 cf             	cmp    %r9,%rdi
  40433a:	7f 14                	jg     404350 <spec_qsort.constprop.18+0xb0>
  40433c:	0f 8c ba 01 00 00    	jl     4044fc <spec_qsort.constprop.18+0x25c>
  404342:	8b 3e                	mov    (%rsi),%edi
  404344:	41 39 38             	cmp    %edi,(%r8)
  404347:	0f 8c af 01 00 00    	jl     4044fc <spec_qsort.constprop.18+0x25c>
  40434d:	0f 1f 00             	nopl   (%rax)
  404350:	45 85 ed             	test   %r13d,%r13d
  404353:	0f 85 cb 01 00 00    	jne    404524 <spec_qsort.constprop.18+0x284>
  404359:	49 8b 34 24          	mov    (%r12),%rsi
  40435d:	48 8b 38             	mov    (%rax),%rdi
  404360:	49 89 3c 24          	mov    %rdi,(%r12)
  404364:	48 89 30             	mov    %rsi,(%rax)
  404367:	4d 8d 5c 24 08       	lea    0x8(%r12),%r11
  40436c:	49 39 d3             	cmp    %rdx,%r11
  40436f:	0f 87 5b 02 00 00    	ja     4045d0 <spec_qsort.constprop.18+0x330>
  404375:	4c 89 df             	mov    %r11,%rdi
  404378:	48 89 d0             	mov    %rdx,%rax
  40437b:	31 db                	xor    %ebx,%ebx
  40437d:	0f 1f 00             	nopl   (%rax)
  404380:	4d 8b 0c 24          	mov    (%r12),%r9
  404384:	48 8b 37             	mov    (%rdi),%rsi
  404387:	49 89 fa             	mov    %rdi,%r10
  40438a:	4d 8b 41 38          	mov    0x38(%r9),%r8
  40438e:	4c 39 46 38          	cmp    %r8,0x38(%rsi)
  404392:	7f 27                	jg     4043bb <spec_qsort.constprop.18+0x11b>
  404394:	0f 8c c6 02 00 00    	jl     404660 <spec_qsort.constprop.18+0x3c0>
  40439a:	41 8b 29             	mov    (%r9),%ebp
  40439d:	39 2e                	cmp    %ebp,(%rsi)
  40439f:	7d 1a                	jge    4043bb <spec_qsort.constprop.18+0x11b>
  4043a1:	e9 ba 02 00 00       	jmpq   404660 <spec_qsort.constprop.18+0x3c0>
  4043a6:	66 2e 0f 1f 84 00 00 	nopw   %cs:0x0(%rax,%rax,1)
  4043ad:	00 00 00 
  4043b0:	41 8b 29             	mov    (%r9),%ebp
  4043b3:	39 2e                	cmp    %ebp,(%rsi)
  4043b5:	7c 18                	jl     4043cf <spec_qsort.constprop.18+0x12f>
  4043b7:	48 83 e8 08          	sub    $0x8,%rax
  4043bb:	48 39 f8             	cmp    %rdi,%rax
  4043be:	0f 82 c5 00 00 00    	jb     404489 <spec_qsort.constprop.18+0x1e9>
  4043c4:	48 8b 30             	mov    (%rax),%rsi
  4043c7:	4c 3b 46 38          	cmp    0x38(%rsi),%r8
  4043cb:	7c ea                	jl     4043b7 <spec_qsort.constprop.18+0x117>
  4043cd:	7e e1                	jle    4043b0 <spec_qsort.constprop.18+0x110>
  4043cf:	48 39 f8             	cmp    %rdi,%rax
  4043d2:	0f 82 b1 00 00 00    	jb     404489 <spec_qsort.constprop.18+0x1e9>
  4043d8:	45 85 ed             	test   %r13d,%r13d
  4043db:	0f 84 5f 02 00 00    	je     404640 <spec_qsort.constprop.18+0x3a0>
  4043e1:	41 83 ff 01          	cmp    $0x1,%r15d
  4043e5:	0f 84 fe 02 00 00    	je     4046e9 <spec_qsort.constprop.18+0x449>
  4043eb:	0f b6 37             	movzbl (%rdi),%esi
  4043ee:	44 0f b6 00          	movzbl (%rax),%r8d
  4043f2:	44 88 07             	mov    %r8b,(%rdi)
  4043f5:	40 88 30             	mov    %sil,(%rax)
  4043f8:	44 0f b6 40 01       	movzbl 0x1(%rax),%r8d
  4043fd:	0f b6 77 01          	movzbl 0x1(%rdi),%esi
  404401:	44 88 47 01          	mov    %r8b,0x1(%rdi)
  404405:	40 88 70 01          	mov    %sil,0x1(%rax)
  404409:	44 0f b6 40 02       	movzbl 0x2(%rax),%r8d
  40440e:	0f b6 77 02          	movzbl 0x2(%rdi),%esi
  404412:	44 88 47 02          	mov    %r8b,0x2(%rdi)
  404416:	40 88 70 02          	mov    %sil,0x2(%rax)
  40441a:	44 0f b6 40 03       	movzbl 0x3(%rax),%r8d
  40441f:	0f b6 77 03          	movzbl 0x3(%rdi),%esi
  404423:	44 88 47 03          	mov    %r8b,0x3(%rdi)
  404427:	40 88 70 03          	mov    %sil,0x3(%rax)
  40442b:	44 0f b6 40 04       	movzbl 0x4(%rax),%r8d
  404430:	0f b6 77 04          	movzbl 0x4(%rdi),%esi
  404434:	44 88 47 04          	mov    %r8b,0x4(%rdi)
  404438:	40 88 70 04          	mov    %sil,0x4(%rax)
  40443c:	44 0f b6 40 05       	movzbl 0x5(%rax),%r8d
  404441:	0f b6 77 05          	movzbl 0x5(%rdi),%esi
  404445:	44 88 47 05          	mov    %r8b,0x5(%rdi)
  404449:	40 88 70 05          	mov    %sil,0x5(%rax)
  40444d:	44 0f b6 40 06       	movzbl 0x6(%rax),%r8d
  404452:	0f b6 77 06          	movzbl 0x6(%rdi),%esi
  404456:	44 88 47 06          	mov    %r8b,0x6(%rdi)
  40445a:	40 88 70 06          	mov    %sil,0x6(%rax)
  40445e:	44 0f b6 40 07       	movzbl 0x7(%rax),%r8d
  404463:	0f b6 77 07          	movzbl 0x7(%rdi),%esi
  404467:	44 88 47 07          	mov    %r8b,0x7(%rdi)
  40446b:	40 88 70 07          	mov    %sil,0x7(%rax)
  40446f:	90                   	nop
  404470:	48 83 c7 08          	add    $0x8,%rdi
  404474:	48 83 e8 08          	sub    $0x8,%rax
  404478:	bb 01 00 00 00       	mov    $0x1,%ebx
  40447d:	49 89 fa             	mov    %rdi,%r10
  404480:	48 39 c7             	cmp    %rax,%rdi
  404483:	0f 86 f7 fe ff ff    	jbe    404380 <spec_qsort.constprop.18+0xe0>
  404489:	4e 8d 04 f5 00 00 00 	lea    0x0(,%r14,8),%r8
  404490:	00 
  404491:	4b 8d 2c 04          	lea    (%r12,%r8,1),%rbp
  404495:	85 db                	test   %ebx,%ebx
  404497:	0f 84 37 01 00 00    	je     4045d4 <spec_qsort.constprop.18+0x334>
  40449d:	4c 89 d6             	mov    %r10,%rsi
  4044a0:	bf 08 00 00 00       	mov    $0x8,%edi
  4044a5:	4c 29 de             	sub    %r11,%rsi
  4044a8:	48 83 fe 08          	cmp    $0x8,%rsi
  4044ac:	48 0f 4e fe          	cmovle %rsi,%rdi
  4044b0:	48 29 c2             	sub    %rax,%rdx
  4044b3:	4c 89 c0             	mov    %r8,%rax
  4044b6:	48 29 c8             	sub    %rcx,%rax
  4044b9:	49 89 d6             	mov    %rdx,%r14
  4044bc:	48 83 e8 08          	sub    $0x8,%rax
  4044c0:	48 39 d0             	cmp    %rdx,%rax
  4044c3:	48 0f 4f c2          	cmovg  %rdx,%rax
  4044c7:	48 85 ff             	test   %rdi,%rdi
  4044ca:	0f 85 47 02 00 00    	jne    404717 <spec_qsort.constprop.18+0x477>
  4044d0:	48 85 c0             	test   %rax,%rax
  4044d3:	0f 85 b4 06 00 00    	jne    404b8d <spec_qsort.constprop.18+0x8ed>
  4044d9:	48 83 fe 08          	cmp    $0x8,%rsi
  4044dd:	0f 87 23 02 00 00    	ja     404706 <spec_qsort.constprop.18+0x466>
  4044e3:	49 83 fe 08          	cmp    $0x8,%r14
  4044e7:	0f 86 41 01 00 00    	jbe    40462e <spec_qsort.constprop.18+0x38e>
  4044ed:	4c 29 f5             	sub    %r14,%rbp
  4044f0:	49 c1 ee 03          	shr    $0x3,%r14
  4044f4:	49 89 ec             	mov    %rbp,%r12
  4044f7:	e9 b8 fd ff ff       	jmpq   4042b4 <spec_qsort.constprop.18+0x14>
  4044fc:	4c 89 d0             	mov    %r10,%rax
  4044ff:	49 39 d9             	cmp    %rbx,%r9
  404502:	0f 8c 48 fe ff ff    	jl     404350 <spec_qsort.constprop.18+0xb0>
  404508:	48 8b 04 24          	mov    (%rsp),%rax
  40450c:	0f 8f 3e fe ff ff    	jg     404350 <spec_qsort.constprop.18+0xb0>
  404512:	8b 1e                	mov    (%rsi),%ebx
  404514:	41 39 1b             	cmp    %ebx,(%r11)
  404517:	49 0f 4d c2          	cmovge %r10,%rax
  40451b:	45 85 ed             	test   %r13d,%r13d
  40451e:	0f 84 35 fe ff ff    	je     404359 <spec_qsort.constprop.18+0xb9>
  404524:	41 83 ff 01          	cmp    $0x1,%r15d
  404528:	0f 84 ee 0d 00 00    	je     40531c <spec_qsort.constprop.18+0x107c>
  40452e:	41 0f b6 34 24       	movzbl (%r12),%esi
  404533:	0f b6 38             	movzbl (%rax),%edi
  404536:	4d 8d 5c 24 08       	lea    0x8(%r12),%r11
  40453b:	41 88 3c 24          	mov    %dil,(%r12)
  40453f:	40 88 30             	mov    %sil,(%rax)
  404542:	0f b6 78 01          	movzbl 0x1(%rax),%edi
  404546:	41 0f b6 74 24 01    	movzbl 0x1(%r12),%esi
  40454c:	41 88 7c 24 01       	mov    %dil,0x1(%r12)
  404551:	40 88 70 01          	mov    %sil,0x1(%rax)
  404555:	0f b6 78 02          	movzbl 0x2(%rax),%edi
  404559:	41 0f b6 74 24 02    	movzbl 0x2(%r12),%esi
  40455f:	41 88 7c 24 02       	mov    %dil,0x2(%r12)
  404564:	40 88 70 02          	mov    %sil,0x2(%rax)
  404568:	0f b6 78 03          	movzbl 0x3(%rax),%edi
  40456c:	41 0f b6 74 24 03    	movzbl 0x3(%r12),%esi
  404572:	41 88 7c 24 03       	mov    %dil,0x3(%r12)
  404577:	40 88 70 03          	mov    %sil,0x3(%rax)
  40457b:	0f b6 78 04          	movzbl 0x4(%rax),%edi
  40457f:	41 0f b6 74 24 04    	movzbl 0x4(%r12),%esi
  404585:	41 88 7c 24 04       	mov    %dil,0x4(%r12)
  40458a:	40 88 70 04          	mov    %sil,0x4(%rax)
  40458e:	0f b6 78 05          	movzbl 0x5(%rax),%edi
  404592:	41 0f b6 74 24 05    	movzbl 0x5(%r12),%esi
  404598:	41 88 7c 24 05       	mov    %dil,0x5(%r12)
  40459d:	40 88 70 05          	mov    %sil,0x5(%rax)
  4045a1:	0f b6 78 06          	movzbl 0x6(%rax),%edi
  4045a5:	41 0f b6 74 24 06    	movzbl 0x6(%r12),%esi
  4045ab:	41 88 7c 24 06       	mov    %dil,0x6(%r12)
  4045b0:	40 88 70 06          	mov    %sil,0x6(%rax)
  4045b4:	0f b6 78 07          	movzbl 0x7(%rax),%edi
  4045b8:	41 0f b6 74 24 07    	movzbl 0x7(%r12),%esi
  4045be:	41 88 7c 24 07       	mov    %dil,0x7(%r12)
  4045c3:	40 88 70 07          	mov    %sil,0x7(%rax)
  4045c7:	49 39 d3             	cmp    %rdx,%r11
  4045ca:	0f 86 a5 fd ff ff    	jbe    404375 <spec_qsort.constprop.18+0xd5>
  4045d0:	4b 8d 2c f4          	lea    (%r12,%r14,8),%rbp
  4045d4:	49 39 eb             	cmp    %rbp,%r11
  4045d7:	73 55                	jae    40462e <spec_qsort.constprop.18+0x38e>
  4045d9:	0f 1f 80 00 00 00 00 	nopl   0x0(%rax)
  4045e0:	4c 89 d8             	mov    %r11,%rax
  4045e3:	eb 29                	jmp    40460e <spec_qsort.constprop.18+0x36e>
  4045e5:	90                   	nop
  4045e6:	66 2e 0f 1f 84 00 00 	nopw   %cs:0x0(%rax,%rax,1)
  4045ed:	00 00 00 
  4045f0:	8b 1a                	mov    (%rdx),%ebx
  4045f2:	39 19                	cmp    %ebx,(%rcx)
  4045f4:	7f 2f                	jg     404625 <spec_qsort.constprop.18+0x385>
  4045f6:	45 85 ed             	test   %r13d,%r13d
  4045f9:	75 71                	jne    40466c <spec_qsort.constprop.18+0x3cc>
  4045fb:	c5 f8 10 10          	vmovups (%rax),%xmm2
  4045ff:	c4 e3 69 0f c2 08    	vpalignr $0x8,%xmm2,%xmm2,%xmm0
  404605:	c5 f8 11 00          	vmovups %xmm0,(%rax)
  404609:	49 39 c4             	cmp    %rax,%r12
  40460c:	73 17                	jae    404625 <spec_qsort.constprop.18+0x385>
  40460e:	48 83 e8 08          	sub    $0x8,%rax
  404612:	48 8b 48 08          	mov    0x8(%rax),%rcx
  404616:	48 8b 10             	mov    (%rax),%rdx
  404619:	48 8b 59 38          	mov    0x38(%rcx),%rbx
  40461d:	48 39 5a 38          	cmp    %rbx,0x38(%rdx)
  404621:	7f d3                	jg     4045f6 <spec_qsort.constprop.18+0x356>
  404623:	7d cb                	jge    4045f0 <spec_qsort.constprop.18+0x350>
  404625:	49 83 c3 08          	add    $0x8,%r11
  404629:	49 39 eb             	cmp    %rbp,%r11
  40462c:	72 b2                	jb     4045e0 <spec_qsort.constprop.18+0x340>
  40462e:	48 83 c4 38          	add    $0x38,%rsp
  404632:	5b                   	pop    %rbx
  404633:	5d                   	pop    %rbp
  404634:	41 5c                	pop    %r12
  404636:	41 5d                	pop    %r13
  404638:	41 5e                	pop    %r14
  40463a:	41 5f                	pop    %r15
  40463c:	c3                   	retq   
  40463d:	0f 1f 00             	nopl   (%rax)
  404640:	48 8b 37             	mov    (%rdi),%rsi
  404643:	4c 8b 00             	mov    (%rax),%r8
  404646:	4c 89 07             	mov    %r8,(%rdi)
  404649:	48 89 30             	mov    %rsi,(%rax)
  40464c:	e9 1f fe ff ff       	jmpq   404470 <spec_qsort.constprop.18+0x1d0>
  404651:	0f 1f 44 00 00       	nopl   0x0(%rax,%rax,1)
  404656:	66 2e 0f 1f 84 00 00 	nopw   %cs:0x0(%rax,%rax,1)
  40465d:	00 00 00 
  404660:	48 83 c7 08          	add    $0x8,%rdi
  404664:	49 89 fa             	mov    %rdi,%r10
  404667:	e9 14 fe ff ff       	jmpq   404480 <spec_qsort.constprop.18+0x1e0>
  40466c:	41 83 ff 01          	cmp    $0x1,%r15d
  404670:	0f 84 12 06 00 00    	je     404c88 <spec_qsort.constprop.18+0x9e8>
  404676:	0f b6 50 08          	movzbl 0x8(%rax),%edx
  40467a:	0f b6 08             	movzbl (%rax),%ecx
  40467d:	88 10                	mov    %dl,(%rax)
  40467f:	88 48 08             	mov    %cl,0x8(%rax)
  404682:	0f b6 50 09          	movzbl 0x9(%rax),%edx
  404686:	0f b6 48 01          	movzbl 0x1(%rax),%ecx
  40468a:	88 50 01             	mov    %dl,0x1(%rax)
  40468d:	88 48 09             	mov    %cl,0x9(%rax)
  404690:	0f b6 50 0a          	movzbl 0xa(%rax),%edx
  404694:	0f b6 48 02          	movzbl 0x2(%rax),%ecx
  404698:	88 50 02             	mov    %dl,0x2(%rax)
  40469b:	88 48 0a             	mov    %cl,0xa(%rax)
  40469e:	0f b6 50 0b          	movzbl 0xb(%rax),%edx
  4046a2:	0f b6 48 03          	movzbl 0x3(%rax),%ecx
  4046a6:	88 50 03             	mov    %dl,0x3(%rax)
  4046a9:	88 48 0b             	mov    %cl,0xb(%rax)
  4046ac:	0f b6 50 0c          	movzbl 0xc(%rax),%edx
  4046b0:	0f b6 48 04          	movzbl 0x4(%rax),%ecx
  4046b4:	88 50 04             	mov    %dl,0x4(%rax)
  4046b7:	88 48 0c             	mov    %cl,0xc(%rax)
  4046ba:	0f b6 50 0d          	movzbl 0xd(%rax),%edx
  4046be:	0f b6 48 05          	movzbl 0x5(%rax),%ecx
  4046c2:	88 50 05             	mov    %dl,0x5(%rax)
  4046c5:	88 48 0d             	mov    %cl,0xd(%rax)
  4046c8:	0f b6 50 0e          	movzbl 0xe(%rax),%edx
  4046cc:	0f b6 48 06          	movzbl 0x6(%rax),%ecx
  4046d0:	88 50 06             	mov    %dl,0x6(%rax)
  4046d3:	88 48 0e             	mov    %cl,0xe(%rax)
  4046d6:	0f b6 50 0f          	movzbl 0xf(%rax),%edx
  4046da:	0f b6 48 07          	movzbl 0x7(%rax),%ecx
  4046de:	88 50 07             	mov    %dl,0x7(%rax)
  4046e1:	88 48 0f             	mov    %cl,0xf(%rax)
  4046e4:	e9 20 ff ff ff       	jmpq   404609 <spec_qsort.constprop.18+0x369>
  4046e9:	8b 37                	mov    (%rdi),%esi
  4046eb:	44 8b 00             	mov    (%rax),%r8d
  4046ee:	44 89 07             	mov    %r8d,(%rdi)
  4046f1:	89 30                	mov    %esi,(%rax)
  4046f3:	44 8b 40 04          	mov    0x4(%rax),%r8d
  4046f7:	8b 77 04             	mov    0x4(%rdi),%esi
  4046fa:	44 89 47 04          	mov    %r8d,0x4(%rdi)
  4046fe:	89 70 04             	mov    %esi,0x4(%rax)
  404701:	e9 6a fd ff ff       	jmpq   404470 <spec_qsort.constprop.18+0x1d0>
  404706:	48 c1 ee 03          	shr    $0x3,%rsi
  40470a:	4c 89 e7             	mov    %r12,%rdi
  40470d:	e8 8e fb ff ff       	callq  4042a0 <spec_qsort.constprop.18>
  404712:	e9 cc fd ff ff       	jmpq   4044e3 <spec_qsort.constprop.18+0x243>
  404717:	4c 89 d1             	mov    %r10,%rcx
  40471a:	48 63 d7             	movslq %edi,%rdx
  40471d:	48 29 f9             	sub    %rdi,%rcx
  404720:	41 83 fd 02          	cmp    $0x2,%r13d
  404724:	0f 85 05 07 00 00    	jne    404e2f <spec_qsort.constprop.18+0xb8f>
  40472a:	4c 63 c7             	movslq %edi,%r8
  40472d:	41 83 ff 01          	cmp    $0x1,%r15d
  404731:	0f 84 73 08 00 00    	je     404faa <spec_qsort.constprop.18+0xd0a>
  404737:	4d 89 d1             	mov    %r10,%r9
  40473a:	4d 8d 5c 24 10       	lea    0x10(%r12),%r11
  40473f:	49 29 f9             	sub    %rdi,%r9
  404742:	49 83 c1 10          	add    $0x10,%r9
  404746:	4d 39 cc             	cmp    %r9,%r12
  404749:	41 0f 93 c1          	setae  %r9b
  40474d:	4c 39 d9             	cmp    %r11,%rcx
  404750:	41 0f 93 c3          	setae  %r11b
  404754:	45 09 d9             	or     %r11d,%r9d
  404757:	41 83 e1 01          	and    $0x1,%r9d
  40475b:	0f 84 ee 0b 00 00    	je     40534f <spec_qsort.constprop.18+0x10af>
  404761:	83 ff 0f             	cmp    $0xf,%edi
  404764:	0f 8e e5 0b 00 00    	jle    40534f <spec_qsort.constprop.18+0x10af>
  40476a:	85 ff                	test   %edi,%edi
  40476c:	41 b9 01 00 00 00    	mov    $0x1,%r9d
  404772:	4d 0f 4f c8          	cmovg  %r8,%r9
  404776:	31 d2                	xor    %edx,%edx
  404778:	4c 89 cf             	mov    %r9,%rdi
  40477b:	48 83 e7 f0          	and    $0xfffffffffffffff0,%rdi
  40477f:	c4 c1 78 10 04 14    	vmovups (%r12,%rdx,1),%xmm0
  404785:	c5 f8 10 2c 11       	vmovups (%rcx,%rdx,1),%xmm5
  40478a:	c4 c1 78 11 2c 14    	vmovups %xmm5,(%r12,%rdx,1)
  404790:	c5 f8 11 04 11       	vmovups %xmm0,(%rcx,%rdx,1)
  404795:	48 83 c2 10          	add    $0x10,%rdx
  404799:	48 39 fa             	cmp    %rdi,%rdx
  40479c:	75 e1                	jne    40477f <spec_qsort.constprop.18+0x4df>
  40479e:	4d 89 cb             	mov    %r9,%r11
  4047a1:	4c 89 c7             	mov    %r8,%rdi
  4047a4:	49 83 e3 f0          	and    $0xfffffffffffffff0,%r11
  4047a8:	4c 29 df             	sub    %r11,%rdi
  4047ab:	4b 8d 14 1c          	lea    (%r12,%r11,1),%rdx
  4047af:	4c 01 d9             	add    %r11,%rcx
  4047b2:	4d 39 cb             	cmp    %r9,%r11
  4047b5:	0f 84 84 01 00 00    	je     40493f <spec_qsort.constprop.18+0x69f>
  4047bb:	44 0f b6 02          	movzbl (%rdx),%r8d
  4047bf:	44 0f b6 09          	movzbl (%rcx),%r9d
  4047c3:	44 88 0a             	mov    %r9b,(%rdx)
  4047c6:	44 88 01             	mov    %r8b,(%rcx)
  4047c9:	4c 8d 47 ff          	lea    -0x1(%rdi),%r8
  4047cd:	4d 85 c0             	test   %r8,%r8
  4047d0:	0f 8e 69 01 00 00    	jle    40493f <spec_qsort.constprop.18+0x69f>
  4047d6:	44 0f b6 42 01       	movzbl 0x1(%rdx),%r8d
  4047db:	44 0f b6 49 01       	movzbl 0x1(%rcx),%r9d
  4047e0:	44 88 4a 01          	mov    %r9b,0x1(%rdx)
  4047e4:	44 88 41 01          	mov    %r8b,0x1(%rcx)
  4047e8:	48 83 ff 02          	cmp    $0x2,%rdi
  4047ec:	0f 84 4d 01 00 00    	je     40493f <spec_qsort.constprop.18+0x69f>
  4047f2:	44 0f b6 42 02       	movzbl 0x2(%rdx),%r8d
  4047f7:	44 0f b6 49 02       	movzbl 0x2(%rcx),%r9d
  4047fc:	44 88 4a 02          	mov    %r9b,0x2(%rdx)
  404800:	44 88 41 02          	mov    %r8b,0x2(%rcx)
  404804:	48 83 ff 03          	cmp    $0x3,%rdi
  404808:	0f 84 31 01 00 00    	je     40493f <spec_qsort.constprop.18+0x69f>
  40480e:	44 0f b6 42 03       	movzbl 0x3(%rdx),%r8d
  404813:	44 0f b6 49 03       	movzbl 0x3(%rcx),%r9d
  404818:	44 88 4a 03          	mov    %r9b,0x3(%rdx)
  40481c:	44 88 41 03          	mov    %r8b,0x3(%rcx)
  404820:	48 83 ff 04          	cmp    $0x4,%rdi
  404824:	0f 84 15 01 00 00    	je     40493f <spec_qsort.constprop.18+0x69f>
  40482a:	44 0f b6 42 04       	movzbl 0x4(%rdx),%r8d
  40482f:	44 0f b6 49 04       	movzbl 0x4(%rcx),%r9d
  404834:	44 88 4a 04          	mov    %r9b,0x4(%rdx)
  404838:	44 88 41 04          	mov    %r8b,0x4(%rcx)
  40483c:	48 83 ff 05          	cmp    $0x5,%rdi
  404840:	0f 84 f9 00 00 00    	je     40493f <spec_qsort.constprop.18+0x69f>
  404846:	44 0f b6 42 05       	movzbl 0x5(%rdx),%r8d
  40484b:	44 0f b6 49 05       	movzbl 0x5(%rcx),%r9d
  404850:	44 88 4a 05          	mov    %r9b,0x5(%rdx)
  404854:	44 88 41 05          	mov    %r8b,0x5(%rcx)
  404858:	48 83 ff 06          	cmp    $0x6,%rdi
  40485c:	0f 84 dd 00 00 00    	je     40493f <spec_qsort.constprop.18+0x69f>
  404862:	44 0f b6 42 06       	movzbl 0x6(%rdx),%r8d
  404867:	44 0f b6 49 06       	movzbl 0x6(%rcx),%r9d
  40486c:	44 88 4a 06          	mov    %r9b,0x6(%rdx)
  404870:	44 88 41 06          	mov    %r8b,0x6(%rcx)
  404874:	48 83 ff 07          	cmp    $0x7,%rdi
  404878:	0f 84 c1 00 00 00    	je     40493f <spec_qsort.constprop.18+0x69f>
  40487e:	44 0f b6 42 07       	movzbl 0x7(%rdx),%r8d
  404883:	44 0f b6 49 07       	movzbl 0x7(%rcx),%r9d
  404888:	44 88 4a 07          	mov    %r9b,0x7(%rdx)
  40488c:	44 88 41 07          	mov    %r8b,0x7(%rcx)
  404890:	48 83 ff 08          	cmp    $0x8,%rdi
  404894:	0f 84 a5 00 00 00    	je     40493f <spec_qsort.constprop.18+0x69f>
  40489a:	44 0f b6 42 08       	movzbl 0x8(%rdx),%r8d
  40489f:	44 0f b6 49 08       	movzbl 0x8(%rcx),%r9d
  4048a4:	44 88 4a 08          	mov    %r9b,0x8(%rdx)
  4048a8:	44 88 41 08          	mov    %r8b,0x8(%rcx)
  4048ac:	48 83 ff 09          	cmp    $0x9,%rdi
  4048b0:	0f 84 89 00 00 00    	je     40493f <spec_qsort.constprop.18+0x69f>
  4048b6:	44 0f b6 42 09       	movzbl 0x9(%rdx),%r8d
  4048bb:	44 0f b6 49 09       	movzbl 0x9(%rcx),%r9d
  4048c0:	44 88 4a 09          	mov    %r9b,0x9(%rdx)
  4048c4:	44 88 41 09          	mov    %r8b,0x9(%rcx)
  4048c8:	48 83 ff 0a          	cmp    $0xa,%rdi
  4048cc:	74 71                	je     40493f <spec_qsort.constprop.18+0x69f>
  4048ce:	44 0f b6 42 0a       	movzbl 0xa(%rdx),%r8d
  4048d3:	44 0f b6 49 0a       	movzbl 0xa(%rcx),%r9d
  4048d8:	44 88 4a 0a          	mov    %r9b,0xa(%rdx)
  4048dc:	44 88 41 0a          	mov    %r8b,0xa(%rcx)
  4048e0:	48 83 ff 0b          	cmp    $0xb,%rdi
  4048e4:	74 59                	je     40493f <spec_qsort.constprop.18+0x69f>
  4048e6:	44 0f b6 42 0b       	movzbl 0xb(%rdx),%r8d
  4048eb:	44 0f b6 49 0b       	movzbl 0xb(%rcx),%r9d
  4048f0:	44 88 4a 0b          	mov    %r9b,0xb(%rdx)
  4048f4:	44 88 41 0b          	mov    %r8b,0xb(%rcx)
  4048f8:	48 83 ff 0c          	cmp    $0xc,%rdi
  4048fc:	74 41                	je     40493f <spec_qsort.constprop.18+0x69f>
  4048fe:	44 0f b6 42 0c       	movzbl 0xc(%rdx),%r8d
  404903:	44 0f b6 49 0c       	movzbl 0xc(%rcx),%r9d
  404908:	44 88 4a 0c          	mov    %r9b,0xc(%rdx)
  40490c:	44 88 41 0c          	mov    %r8b,0xc(%rcx)
  404910:	48 83 ff 0d          	cmp    $0xd,%rdi
  404914:	74 29                	je     40493f <spec_qsort.constprop.18+0x69f>
  404916:	44 0f b6 42 0d       	movzbl 0xd(%rdx),%r8d
  40491b:	44 0f b6 49 0d       	movzbl 0xd(%rcx),%r9d
  404920:	44 88 4a 0d          	mov    %r9b,0xd(%rdx)
  404924:	44 88 41 0d          	mov    %r8b,0xd(%rcx)
  404928:	48 83 ff 0e          	cmp    $0xe,%rdi
  40492c:	74 11                	je     40493f <spec_qsort.constprop.18+0x69f>
  40492e:	0f b6 7a 0e          	movzbl 0xe(%rdx),%edi
  404932:	44 0f b6 41 0e       	movzbl 0xe(%rcx),%r8d
  404937:	44 88 42 0e          	mov    %r8b,0xe(%rdx)
  40493b:	40 88 79 0e          	mov    %dil,0xe(%rcx)
  40493f:	48 85 c0             	test   %rax,%rax
  404942:	0f 84 91 fb ff ff    	je     4044d9 <spec_qsort.constprop.18+0x239>
  404948:	48 89 eb             	mov    %rbp,%rbx
  40494b:	89 c2                	mov    %eax,%edx
  40494d:	48 29 c3             	sub    %rax,%rbx
  404950:	48 89 d8             	mov    %rbx,%rax
  404953:	49 8d 7a 10          	lea    0x10(%r10),%rdi
  404957:	4c 8d 40 10          	lea    0x10(%rax),%r8
  40495b:	48 63 ca             	movslq %edx,%rcx
  40495e:	48 39 f8             	cmp    %rdi,%rax
  404961:	40 0f 93 c7          	setae  %dil
  404965:	4d 39 c2             	cmp    %r8,%r10
  404968:	41 0f 93 c0          	setae  %r8b
  40496c:	44 09 c7             	or     %r8d,%edi
  40496f:	83 e7 01             	and    $0x1,%edi
  404972:	0f 84 03 0a 00 00    	je     40537b <spec_qsort.constprop.18+0x10db>
  404978:	83 fa 0f             	cmp    $0xf,%edx
  40497b:	0f 8e fa 09 00 00    	jle    40537b <spec_qsort.constprop.18+0x10db>
  404981:	85 d2                	test   %edx,%edx
  404983:	41 b8 01 00 00 00    	mov    $0x1,%r8d
  404989:	4c 0f 4f c1          	cmovg  %rcx,%r8
  40498d:	31 d2                	xor    %edx,%edx
  40498f:	4c 89 c7             	mov    %r8,%rdi
  404992:	48 83 e7 f0          	and    $0xfffffffffffffff0,%rdi
  404996:	c4 c1 78 10 04 12    	vmovups (%r10,%rdx,1),%xmm0
  40499c:	c5 f8 10 34 10       	vmovups (%rax,%rdx,1),%xmm6
  4049a1:	c4 c1 78 11 34 12    	vmovups %xmm6,(%r10,%rdx,1)
  4049a7:	c5 f8 11 04 10       	vmovups %xmm0,(%rax,%rdx,1)
  4049ac:	48 83 c2 10          	add    $0x10,%rdx
  4049b0:	48 39 fa             	cmp    %rdi,%rdx
  4049b3:	75 e1                	jne    404996 <spec_qsort.constprop.18+0x6f6>
  4049b5:	4c 89 c2             	mov    %r8,%rdx
  4049b8:	48 83 e2 f0          	and    $0xfffffffffffffff0,%rdx
  4049bc:	48 29 d1             	sub    %rdx,%rcx
  4049bf:	49 01 d2             	add    %rdx,%r10
  4049c2:	48 01 d0             	add    %rdx,%rax
  4049c5:	49 39 d0             	cmp    %rdx,%r8
  4049c8:	0f 84 0b fb ff ff    	je     4044d9 <spec_qsort.constprop.18+0x239>
  4049ce:	41 0f b6 12          	movzbl (%r10),%edx
  4049d2:	0f b6 38             	movzbl (%rax),%edi
  4049d5:	41 88 3a             	mov    %dil,(%r10)
  4049d8:	88 10                	mov    %dl,(%rax)
  4049da:	48 8d 51 ff          	lea    -0x1(%rcx),%rdx
  4049de:	48 85 d2             	test   %rdx,%rdx
  4049e1:	0f 8e f2 fa ff ff    	jle    4044d9 <spec_qsort.constprop.18+0x239>
  4049e7:	41 0f b6 52 01       	movzbl 0x1(%r10),%edx
  4049ec:	0f b6 78 01          	movzbl 0x1(%rax),%edi
  4049f0:	41 88 7a 01          	mov    %dil,0x1(%r10)
  4049f4:	88 50 01             	mov    %dl,0x1(%rax)
  4049f7:	48 83 f9 02          	cmp    $0x2,%rcx
  4049fb:	0f 84 d8 fa ff ff    	je     4044d9 <spec_qsort.constprop.18+0x239>
  404a01:	41 0f b6 52 02       	movzbl 0x2(%r10),%edx
  404a06:	0f b6 78 02          	movzbl 0x2(%rax),%edi
  404a0a:	41 88 7a 02          	mov    %dil,0x2(%r10)
  404a0e:	88 50 02             	mov    %dl,0x2(%rax)
  404a11:	48 83 f9 03          	cmp    $0x3,%rcx
  404a15:	0f 84 be fa ff ff    	je     4044d9 <spec_qsort.constprop.18+0x239>
  404a1b:	41 0f b6 52 03       	movzbl 0x3(%r10),%edx
  404a20:	0f b6 78 03          	movzbl 0x3(%rax),%edi
  404a24:	41 88 7a 03          	mov    %dil,0x3(%r10)
  404a28:	88 50 03             	mov    %dl,0x3(%rax)
  404a2b:	48 83 f9 04          	cmp    $0x4,%rcx
  404a2f:	0f 84 a4 fa ff ff    	je     4044d9 <spec_qsort.constprop.18+0x239>
  404a35:	41 0f b6 52 04       	movzbl 0x4(%r10),%edx
  404a3a:	0f b6 78 04          	movzbl 0x4(%rax),%edi
  404a3e:	41 88 7a 04          	mov    %dil,0x4(%r10)
  404a42:	88 50 04             	mov    %dl,0x4(%rax)
  404a45:	48 83 f9 05          	cmp    $0x5,%rcx
  404a49:	0f 84 8a fa ff ff    	je     4044d9 <spec_qsort.constprop.18+0x239>
  404a4f:	41 0f b6 52 05       	movzbl 0x5(%r10),%edx
  404a54:	0f b6 78 05          	movzbl 0x5(%rax),%edi
  404a58:	41 88 7a 05          	mov    %dil,0x5(%r10)
  404a5c:	88 50 05             	mov    %dl,0x5(%rax)
  404a5f:	48 83 f9 06          	cmp    $0x6,%rcx
  404a63:	0f 84 70 fa ff ff    	je     4044d9 <spec_qsort.constprop.18+0x239>
  404a69:	41 0f b6 52 06       	movzbl 0x6(%r10),%edx
  404a6e:	0f b6 78 06          	movzbl 0x6(%rax),%edi
  404a72:	41 88 7a 06          	mov    %dil,0x6(%r10)
  404a76:	88 50 06             	mov    %dl,0x6(%rax)
  404a79:	48 83 f9 07          	cmp    $0x7,%rcx
  404a7d:	0f 84 56 fa ff ff    	je     4044d9 <spec_qsort.constprop.18+0x239>
  404a83:	41 0f b6 52 07       	movzbl 0x7(%r10),%edx
  404a88:	0f b6 78 07          	movzbl 0x7(%rax),%edi
  404a8c:	41 88 7a 07          	mov    %dil,0x7(%r10)
  404a90:	88 50 07             	mov    %dl,0x7(%rax)
  404a93:	48 83 f9 08          	cmp    $0x8,%rcx
  404a97:	0f 84 3c fa ff ff    	je     4044d9 <spec_qsort.constprop.18+0x239>
  404a9d:	41 0f b6 52 08       	movzbl 0x8(%r10),%edx
  404aa2:	0f b6 78 08          	movzbl 0x8(%rax),%edi
  404aa6:	41 88 7a 08          	mov    %dil,0x8(%r10)
  404aaa:	88 50 08             	mov    %dl,0x8(%rax)
  404aad:	48 83 f9 09          	cmp    $0x9,%rcx
  404ab1:	0f 84 22 fa ff ff    	je     4044d9 <spec_qsort.constprop.18+0x239>
  404ab7:	41 0f b6 52 09       	movzbl 0x9(%r10),%edx
  404abc:	0f b6 78 09          	movzbl 0x9(%rax),%edi
  404ac0:	41 88 7a 09          	mov    %dil,0x9(%r10)
  404ac4:	88 50 09             	mov    %dl,0x9(%rax)
  404ac7:	48 83 f9 0a          	cmp    $0xa,%rcx
  404acb:	0f 84 08 fa ff ff    	je     4044d9 <spec_qsort.constprop.18+0x239>
  404ad1:	41 0f b6 52 0a       	movzbl 0xa(%r10),%edx
  404ad6:	0f b6 78 0a          	movzbl 0xa(%rax),%edi
  404ada:	41 88 7a 0a          	mov    %dil,0xa(%r10)
  404ade:	88 50 0a             	mov    %dl,0xa(%rax)
  404ae1:	48 83 f9 0b          	cmp    $0xb,%rcx
  404ae5:	0f 84 ee f9 ff ff    	je     4044d9 <spec_qsort.constprop.18+0x239>
  404aeb:	41 0f b6 52 0b       	movzbl 0xb(%r10),%edx
  404af0:	0f b6 78 0b          	movzbl 0xb(%rax),%edi
  404af4:	41 88 7a 0b          	mov    %dil,0xb(%r10)
  404af8:	88 50 0b             	mov    %dl,0xb(%rax)
  404afb:	48 83 f9 0c          	cmp    $0xc,%rcx
  404aff:	0f 84 d4 f9 ff ff    	je     4044d9 <spec_qsort.constprop.18+0x239>
  404b05:	41 0f b6 52 0c       	movzbl 0xc(%r10),%edx
  404b0a:	0f b6 78 0c          	movzbl 0xc(%rax),%edi
  404b0e:	41 88 7a 0c          	mov    %dil,0xc(%r10)
  404b12:	88 50 0c             	mov    %dl,0xc(%rax)
  404b15:	48 83 f9 0d          	cmp    $0xd,%rcx
  404b19:	0f 84 ba f9 ff ff    	je     4044d9 <spec_qsort.constprop.18+0x239>
  404b1f:	41 0f b6 52 0d       	movzbl 0xd(%r10),%edx
  404b24:	0f b6 78 0d          	movzbl 0xd(%rax),%edi
  404b28:	41 88 7a 0d          	mov    %dil,0xd(%r10)
  404b2c:	88 50 0d             	mov    %dl,0xd(%rax)
  404b2f:	48 83 f9 0e          	cmp    $0xe,%rcx
  404b33:	0f 84 a0 f9 ff ff    	je     4044d9 <spec_qsort.constprop.18+0x239>
  404b39:	41 0f b6 52 0e       	movzbl 0xe(%r10),%edx
  404b3e:	0f b6 48 0e          	movzbl 0xe(%rax),%ecx
  404b42:	41 88 4a 0e          	mov    %cl,0xe(%r10)
  404b46:	88 50 0e             	mov    %dl,0xe(%rax)
  404b49:	e9 8b f9 ff ff       	jmpq   4044d9 <spec_qsort.constprop.18+0x239>
  404b4e:	66 90                	xchg   %ax,%ax
  404b50:	4c 39 cf             	cmp    %r9,%rdi
  404b53:	7f 11                	jg     404b66 <spec_qsort.constprop.18+0x8c6>
  404b55:	0f 8c f5 f7 ff ff    	jl     404350 <spec_qsort.constprop.18+0xb0>
  404b5b:	8b 3e                	mov    (%rsi),%edi
  404b5d:	41 39 38             	cmp    %edi,(%r8)
  404b60:	0f 8c ea f7 ff ff    	jl     404350 <spec_qsort.constprop.18+0xb0>
  404b66:	48 8b 3c 24          	mov    (%rsp),%rdi
  404b6a:	48 89 f8             	mov    %rdi,%rax
  404b6d:	49 39 d9             	cmp    %rbx,%r9
  404b70:	0f 8c da f7 ff ff    	jl     404350 <spec_qsort.constprop.18+0xb0>
  404b76:	4c 89 d0             	mov    %r10,%rax
  404b79:	0f 8f d1 f7 ff ff    	jg     404350 <spec_qsort.constprop.18+0xb0>
  404b7f:	8b 1e                	mov    (%rsi),%ebx
  404b81:	41 39 1b             	cmp    %ebx,(%r11)
  404b84:	48 0f 4d c7          	cmovge %rdi,%rax
  404b88:	e9 c3 f7 ff ff       	jmpq   404350 <spec_qsort.constprop.18+0xb0>
  404b8d:	48 89 eb             	mov    %rbp,%rbx
  404b90:	48 63 d0             	movslq %eax,%rdx
  404b93:	48 29 c3             	sub    %rax,%rbx
  404b96:	48 89 d8             	mov    %rbx,%rax
  404b99:	41 83 fd 02          	cmp    $0x2,%r13d
  404b9d:	0f 85 47 03 00 00    	jne    404eea <spec_qsort.constprop.18+0xc4a>
  404ba3:	41 83 ff 01          	cmp    $0x1,%r15d
  404ba7:	0f 85 a6 fd ff ff    	jne    404953 <spec_qsort.constprop.18+0x6b3>
  404bad:	48 8d 48 10          	lea    0x10(%rax),%rcx
  404bb1:	48 c1 ea 02          	shr    $0x2,%rdx
  404bb5:	4d 8d 42 10          	lea    0x10(%r10),%r8
  404bb9:	49 39 ca             	cmp    %rcx,%r10
  404bbc:	48 89 d7             	mov    %rdx,%rdi
  404bbf:	0f 93 c1             	setae  %cl
  404bc2:	4c 39 c0             	cmp    %r8,%rax
  404bc5:	41 0f 93 c0          	setae  %r8b
  404bc9:	44 09 c1             	or     %r8d,%ecx
  404bcc:	83 e1 01             	and    $0x1,%ecx
  404bcf:	0f 84 c0 04 00 00    	je     405095 <spec_qsort.constprop.18+0xdf5>
  404bd5:	48 8d 4a fc          	lea    -0x4(%rdx),%rcx
  404bd9:	48 bb fb ff ff ff ff 	movabs $0x7ffffffffffffffb,%rbx
  404be0:	ff ff 7f 
  404be3:	48 39 d9             	cmp    %rbx,%rcx
  404be6:	0f 87 a9 04 00 00    	ja     405095 <spec_qsort.constprop.18+0xdf5>
  404bec:	48 85 d2             	test   %rdx,%rdx
  404bef:	41 b8 01 00 00 00    	mov    $0x1,%r8d
  404bf5:	4c 0f 4f c2          	cmovg  %rdx,%r8
  404bf9:	31 d2                	xor    %edx,%edx
  404bfb:	4c 89 c1             	mov    %r8,%rcx
  404bfe:	48 c1 e9 02          	shr    $0x2,%rcx
  404c02:	48 c1 e1 04          	shl    $0x4,%rcx
  404c06:	c4 c1 78 10 04 12    	vmovups (%r10,%rdx,1),%xmm0
  404c0c:	c5 f8 10 3c 10       	vmovups (%rax,%rdx,1),%xmm7
  404c11:	c4 c1 78 11 3c 12    	vmovups %xmm7,(%r10,%rdx,1)
  404c17:	c5 f8 11 04 10       	vmovups %xmm0,(%rax,%rdx,1)
  404c1c:	48 83 c2 10          	add    $0x10,%rdx
  404c20:	48 39 ca             	cmp    %rcx,%rdx
  404c23:	75 e1                	jne    404c06 <spec_qsort.constprop.18+0x966>
  404c25:	4c 89 c2             	mov    %r8,%rdx
  404c28:	48 83 e2 fc          	and    $0xfffffffffffffffc,%rdx
  404c2c:	48 8d 0c 95 00 00 00 	lea    0x0(,%rdx,4),%rcx
  404c33:	00 
  404c34:	48 29 d7             	sub    %rdx,%rdi
  404c37:	49 01 ca             	add    %rcx,%r10
  404c3a:	48 01 c8             	add    %rcx,%rax
  404c3d:	4c 39 c2             	cmp    %r8,%rdx
  404c40:	0f 84 93 f8 ff ff    	je     4044d9 <spec_qsort.constprop.18+0x239>
  404c46:	41 8b 12             	mov    (%r10),%edx
  404c49:	8b 08                	mov    (%rax),%ecx
  404c4b:	41 89 0a             	mov    %ecx,(%r10)
  404c4e:	89 10                	mov    %edx,(%rax)
  404c50:	48 8d 57 ff          	lea    -0x1(%rdi),%rdx
  404c54:	48 85 d2             	test   %rdx,%rdx
  404c57:	0f 8e 7c f8 ff ff    	jle    4044d9 <spec_qsort.constprop.18+0x239>
  404c5d:	41 8b 52 04          	mov    0x4(%r10),%edx
  404c61:	8b 48 04             	mov    0x4(%rax),%ecx
  404c64:	41 89 4a 04          	mov    %ecx,0x4(%r10)
  404c68:	89 50 04             	mov    %edx,0x4(%rax)
  404c6b:	48 83 ff 02          	cmp    $0x2,%rdi
  404c6f:	0f 84 64 f8 ff ff    	je     4044d9 <spec_qsort.constprop.18+0x239>
  404c75:	41 8b 52 08          	mov    0x8(%r10),%edx
  404c79:	8b 48 08             	mov    0x8(%rax),%ecx
  404c7c:	41 89 4a 08          	mov    %ecx,0x8(%r10)
  404c80:	89 50 08             	mov    %edx,0x8(%rax)
  404c83:	e9 51 f8 ff ff       	jmpq   4044d9 <spec_qsort.constprop.18+0x239>
  404c88:	8b 50 08             	mov    0x8(%rax),%edx
  404c8b:	8b 08                	mov    (%rax),%ecx
  404c8d:	89 10                	mov    %edx,(%rax)
  404c8f:	89 48 08             	mov    %ecx,0x8(%rax)
  404c92:	8b 50 0c             	mov    0xc(%rax),%edx
  404c95:	8b 48 04             	mov    0x4(%rax),%ecx
  404c98:	89 50 04             	mov    %edx,0x4(%rax)
  404c9b:	89 48 0c             	mov    %ecx,0xc(%rax)
  404c9e:	e9 66 f9 ff ff       	jmpq   404609 <spec_qsort.constprop.18+0x369>
  404ca3:	4c 89 f3             	mov    %r14,%rbx
  404ca6:	48 83 e3 f8          	and    $0xfffffffffffffff8,%rbx
  404caa:	4d 8d 1c 1c          	lea    (%r12,%rbx,1),%r11
  404cae:	48 89 5c 24 20       	mov    %rbx,0x20(%rsp)
  404cb3:	4d 8d 14 5c          	lea    (%r12,%rbx,2),%r10
  404cb7:	49 8b 1c 24          	mov    (%r12),%rbx
  404cbb:	4c 89 1c 24          	mov    %r11,(%rsp)
  404cbf:	4d 8b 1b             	mov    (%r11),%r11
  404cc2:	48 8b 6b 38          	mov    0x38(%rbx),%rbp
  404cc6:	48 89 5c 24 08       	mov    %rbx,0x8(%rsp)
  404ccb:	49 8b 5b 38          	mov    0x38(%r11),%rbx
  404ccf:	48 89 6c 24 10       	mov    %rbp,0x10(%rsp)
  404cd4:	48 89 5c 24 18       	mov    %rbx,0x18(%rsp)
  404cd9:	48 39 dd             	cmp    %rbx,%rbp
  404cdc:	7f 16                	jg     404cf4 <spec_qsort.constprop.18+0xa54>
  404cde:	0f 8c 3f 05 00 00    	jl     405223 <spec_qsort.constprop.18+0xf83>
  404ce4:	48 8b 5c 24 08       	mov    0x8(%rsp),%rbx
  404ce9:	41 8b 2b             	mov    (%r11),%ebp
  404cec:	39 2b                	cmp    %ebp,(%rbx)
  404cee:	0f 8c 2f 05 00 00    	jl     405223 <spec_qsort.constprop.18+0xf83>
  404cf4:	49 8b 1a             	mov    (%r10),%rbx
  404cf7:	48 8b 6b 38          	mov    0x38(%rbx),%rbp
  404cfb:	48 89 6c 24 28       	mov    %rbp,0x28(%rsp)
  404d00:	48 39 6c 24 18       	cmp    %rbp,0x18(%rsp)
  404d05:	7f 31                	jg     404d38 <spec_qsort.constprop.18+0xa98>
  404d07:	7c 07                	jl     404d10 <spec_qsort.constprop.18+0xa70>
  404d09:	8b 2b                	mov    (%rbx),%ebp
  404d0b:	41 39 2b             	cmp    %ebp,(%r11)
  404d0e:	7d 28                	jge    404d38 <spec_qsort.constprop.18+0xa98>
  404d10:	4c 89 14 24          	mov    %r10,(%rsp)
  404d14:	48 8b 6c 24 28       	mov    0x28(%rsp),%rbp
  404d19:	48 39 6c 24 10       	cmp    %rbp,0x10(%rsp)
  404d1e:	7f 18                	jg     404d38 <spec_qsort.constprop.18+0xa98>
  404d20:	4c 89 24 24          	mov    %r12,(%rsp)
  404d24:	7c 12                	jl     404d38 <spec_qsort.constprop.18+0xa98>
  404d26:	4c 8b 5c 24 08       	mov    0x8(%rsp),%r11
  404d2b:	8b 1b                	mov    (%rbx),%ebx
  404d2d:	41 39 1b             	cmp    %ebx,(%r11)
  404d30:	4d 0f 4c d4          	cmovl  %r12,%r10
  404d34:	4c 89 14 24          	mov    %r10,(%rsp)
  404d38:	48 8b 5c 24 20       	mov    0x20(%rsp),%rbx
  404d3d:	4c 8d 1c 18          	lea    (%rax,%rbx,1),%r11
  404d41:	48 f7 db             	neg    %rbx
  404d44:	48 89 5c 24 20       	mov    %rbx,0x20(%rsp)
  404d49:	48 01 c3             	add    %rax,%rbx
  404d4c:	4c 89 5c 24 08       	mov    %r11,0x8(%rsp)
  404d51:	48 89 5c 24 18       	mov    %rbx,0x18(%rsp)
  404d56:	4c 8b 13             	mov    (%rbx),%r10
  404d59:	49 8b 5a 38          	mov    0x38(%r10),%rbx
  404d5d:	48 89 5c 24 10       	mov    %rbx,0x10(%rsp)
  404d62:	48 39 df             	cmp    %rbx,%rdi
  404d65:	7c 12                	jl     404d79 <spec_qsort.constprop.18+0xad9>
  404d67:	0f 8f 0f 05 00 00    	jg     40527c <spec_qsort.constprop.18+0xfdc>
  404d6d:	41 8b 18             	mov    (%r8),%ebx
  404d70:	41 39 1a             	cmp    %ebx,(%r10)
  404d73:	0f 8c 03 05 00 00    	jl     40527c <spec_qsort.constprop.18+0xfdc>
  404d79:	48 8b 5c 24 08       	mov    0x8(%rsp),%rbx
  404d7e:	4c 8b 1b             	mov    (%rbx),%r11
  404d81:	49 8b 5b 38          	mov    0x38(%r11),%rbx
  404d85:	48 39 df             	cmp    %rbx,%rdi
  404d88:	7f 2e                	jg     404db8 <spec_qsort.constprop.18+0xb18>
  404d8a:	7c 08                	jl     404d94 <spec_qsort.constprop.18+0xaf4>
  404d8c:	41 8b 2b             	mov    (%r11),%ebp
  404d8f:	41 39 28             	cmp    %ebp,(%r8)
  404d92:	7d 24                	jge    404db8 <spec_qsort.constprop.18+0xb18>
  404d94:	48 39 5c 24 10       	cmp    %rbx,0x10(%rsp)
  404d99:	7f 12                	jg     404dad <spec_qsort.constprop.18+0xb0d>
  404d9b:	0f 8c 01 06 00 00    	jl     4053a2 <spec_qsort.constprop.18+0x1102>
  404da1:	41 8b 03             	mov    (%r11),%eax
  404da4:	41 39 02             	cmp    %eax,(%r10)
  404da7:	0f 8c f5 05 00 00    	jl     4053a2 <spec_qsort.constprop.18+0x1102>
  404dad:	48 8b 44 24 08       	mov    0x8(%rsp),%rax
  404db2:	48 89 df             	mov    %rbx,%rdi
  404db5:	4d 89 d8             	mov    %r11,%r8
  404db8:	48 8b 5c 24 20       	mov    0x20(%rsp),%rbx
  404dbd:	4c 8d 14 1a          	lea    (%rdx,%rbx,1),%r10
  404dc1:	4c 01 d3             	add    %r10,%rbx
  404dc4:	4c 8b 1b             	mov    (%rbx),%r11
  404dc7:	48 89 5c 24 20       	mov    %rbx,0x20(%rsp)
  404dcc:	49 8b 1a             	mov    (%r10),%rbx
  404dcf:	49 8b 6b 38          	mov    0x38(%r11),%rbp
  404dd3:	48 89 5c 24 08       	mov    %rbx,0x8(%rsp)
  404dd8:	48 8b 5b 38          	mov    0x38(%rbx),%rbx
  404ddc:	4c 89 5c 24 18       	mov    %r11,0x18(%rsp)
  404de1:	48 89 5c 24 10       	mov    %rbx,0x10(%rsp)
  404de6:	48 39 dd             	cmp    %rbx,%rbp
  404de9:	7f 16                	jg     404e01 <spec_qsort.constprop.18+0xb61>
  404deb:	0f 8c d3 03 00 00    	jl     4051c4 <spec_qsort.constprop.18+0xf24>
  404df1:	48 8b 5c 24 08       	mov    0x8(%rsp),%rbx
  404df6:	8b 1b                	mov    (%rbx),%ebx
  404df8:	41 39 1b             	cmp    %ebx,(%r11)
  404dfb:	0f 8c c3 03 00 00    	jl     4051c4 <spec_qsort.constprop.18+0xf24>
  404e01:	4c 3b 4c 24 10       	cmp    0x10(%rsp),%r9
  404e06:	0f 8c 08 04 00 00    	jl     405214 <spec_qsort.constprop.18+0xf74>
  404e0c:	0f 8f b6 04 00 00    	jg     4052c8 <spec_qsort.constprop.18+0x1028>
  404e12:	4c 8b 5c 24 08       	mov    0x8(%rsp),%r11
  404e17:	8b 1e                	mov    (%rsi),%ebx
  404e19:	41 39 1b             	cmp    %ebx,(%r11)
  404e1c:	0f 8c a6 04 00 00    	jl     4052c8 <spec_qsort.constprop.18+0x1028>
  404e22:	4c 89 de             	mov    %r11,%rsi
  404e25:	4c 8b 4c 24 10       	mov    0x10(%rsp),%r9
  404e2a:	e9 e6 f4 ff ff       	jmpq   404315 <spec_qsort.constprop.18+0x75>
  404e2f:	48 63 d7             	movslq %edi,%rdx
  404e32:	48 89 cf             	mov    %rcx,%rdi
  404e35:	4d 8d 4c 24 10       	lea    0x10(%r12),%r9
  404e3a:	48 83 c7 10          	add    $0x10,%rdi
  404e3e:	48 c1 ea 03          	shr    $0x3,%rdx
  404e42:	49 39 fc             	cmp    %rdi,%r12
  404e45:	49 89 d0             	mov    %rdx,%r8
  404e48:	40 0f 93 c7          	setae  %dil
  404e4c:	4c 39 c9             	cmp    %r9,%rcx
  404e4f:	41 0f 93 c1          	setae  %r9b
  404e53:	44 09 cf             	or     %r9d,%edi
  404e56:	83 e7 01             	and    $0x1,%edi
  404e59:	0f 84 97 04 00 00    	je     4052f6 <spec_qsort.constprop.18+0x1056>
  404e5f:	48 8d 7a fd          	lea    -0x3(%rdx),%rdi
  404e63:	48 bb fc ff ff ff ff 	movabs $0x7ffffffffffffffc,%rbx
  404e6a:	ff ff 7f 
  404e6d:	48 39 df             	cmp    %rbx,%rdi
  404e70:	0f 87 80 04 00 00    	ja     4052f6 <spec_qsort.constprop.18+0x1056>
  404e76:	48 85 d2             	test   %rdx,%rdx
  404e79:	41 b8 01 00 00 00    	mov    $0x1,%r8d
  404e7f:	4c 0f 4f c2          	cmovg  %rdx,%r8
  404e83:	31 d2                	xor    %edx,%edx
  404e85:	4c 89 c7             	mov    %r8,%rdi
  404e88:	48 d1 ef             	shr    %rdi
  404e8b:	48 c1 e7 04          	shl    $0x4,%rdi
  404e8f:	c4 c1 78 10 04 14    	vmovups (%r12,%rdx,1),%xmm0
  404e95:	c5 f8 10 1c 11       	vmovups (%rcx,%rdx,1),%xmm3
  404e9a:	c4 c1 78 11 1c 14    	vmovups %xmm3,(%r12,%rdx,1)
  404ea0:	c5 f8 11 04 11       	vmovups %xmm0,(%rcx,%rdx,1)
  404ea5:	48 83 c2 10          	add    $0x10,%rdx
  404ea9:	48 39 fa             	cmp    %rdi,%rdx
  404eac:	75 e1                	jne    404e8f <spec_qsort.constprop.18+0xbef>
  404eae:	4d 89 c1             	mov    %r8,%r9
  404eb1:	49 83 e1 fe          	and    $0xfffffffffffffffe,%r9
  404eb5:	4a 8d 14 cd 00 00 00 	lea    0x0(,%r9,8),%rdx
  404ebc:	00 
  404ebd:	49 8d 3c 14          	lea    (%r12,%rdx,1),%rdi
  404ec1:	48 01 d1             	add    %rdx,%rcx
  404ec4:	4d 39 c1             	cmp    %r8,%r9
  404ec7:	74 0c                	je     404ed5 <spec_qsort.constprop.18+0xc35>
  404ec9:	48 8b 17             	mov    (%rdi),%rdx
  404ecc:	4c 8b 01             	mov    (%rcx),%r8
  404ecf:	4c 89 07             	mov    %r8,(%rdi)
  404ed2:	48 89 11             	mov    %rdx,(%rcx)
  404ed5:	48 85 c0             	test   %rax,%rax
  404ed8:	0f 84 fb f5 ff ff    	je     4044d9 <spec_qsort.constprop.18+0x239>
  404ede:	48 89 eb             	mov    %rbp,%rbx
  404ee1:	48 63 d0             	movslq %eax,%rdx
  404ee4:	48 29 c3             	sub    %rax,%rbx
  404ee7:	48 89 d8             	mov    %rbx,%rax
  404eea:	49 8d 4a 10          	lea    0x10(%r10),%rcx
  404eee:	48 c1 ea 03          	shr    $0x3,%rdx
  404ef2:	4c 8d 40 10          	lea    0x10(%rax),%r8
  404ef6:	48 39 c8             	cmp    %rcx,%rax
  404ef9:	48 89 d7             	mov    %rdx,%rdi
  404efc:	0f 93 c1             	setae  %cl
  404eff:	4d 39 c2             	cmp    %r8,%r10
  404f02:	41 0f 93 c0          	setae  %r8b
  404f06:	44 09 c1             	or     %r8d,%ecx
  404f09:	83 e1 01             	and    $0x1,%ecx
  404f0c:	74 79                	je     404f87 <spec_qsort.constprop.18+0xce7>
  404f0e:	48 8d 4a fd          	lea    -0x3(%rdx),%rcx
  404f12:	48 bb fc ff ff ff ff 	movabs $0x7ffffffffffffffc,%rbx
  404f19:	ff ff 7f 
  404f1c:	48 39 d9             	cmp    %rbx,%rcx
  404f1f:	77 66                	ja     404f87 <spec_qsort.constprop.18+0xce7>
  404f21:	48 85 d2             	test   %rdx,%rdx
  404f24:	b9 01 00 00 00       	mov    $0x1,%ecx
  404f29:	48 0f 4f ca          	cmovg  %rdx,%rcx
  404f2d:	31 d2                	xor    %edx,%edx
  404f2f:	48 89 cf             	mov    %rcx,%rdi
  404f32:	48 d1 ef             	shr    %rdi
  404f35:	48 c1 e7 04          	shl    $0x4,%rdi
  404f39:	c4 c1 78 10 04 12    	vmovups (%r10,%rdx,1),%xmm0
  404f3f:	c5 f8 10 24 10       	vmovups (%rax,%rdx,1),%xmm4
  404f44:	c4 c1 78 11 24 12    	vmovups %xmm4,(%r10,%rdx,1)
  404f4a:	c5 f8 11 04 10       	vmovups %xmm0,(%rax,%rdx,1)
  404f4f:	48 83 c2 10          	add    $0x10,%rdx
  404f53:	48 39 d7             	cmp    %rdx,%rdi
  404f56:	75 e1                	jne    404f39 <spec_qsort.constprop.18+0xc99>
  404f58:	48 89 cf             	mov    %rcx,%rdi
  404f5b:	48 83 e7 fe          	and    $0xfffffffffffffffe,%rdi
  404f5f:	48 8d 14 fd 00 00 00 	lea    0x0(,%rdi,8),%rdx
  404f66:	00 
  404f67:	49 01 d2             	add    %rdx,%r10
  404f6a:	48 01 d0             	add    %rdx,%rax
  404f6d:	48 39 cf             	cmp    %rcx,%rdi
  404f70:	0f 84 63 f5 ff ff    	je     4044d9 <spec_qsort.constprop.18+0x239>
  404f76:	49 8b 12             	mov    (%r10),%rdx
  404f79:	48 8b 08             	mov    (%rax),%rcx
  404f7c:	49 89 0a             	mov    %rcx,(%r10)
  404f7f:	48 89 10             	mov    %rdx,(%rax)
  404f82:	e9 52 f5 ff ff       	jmpq   4044d9 <spec_qsort.constprop.18+0x239>
  404f87:	49 8b 12             	mov    (%r10),%rdx
  404f8a:	48 8b 08             	mov    (%rax),%rcx
  404f8d:	49 83 c2 08          	add    $0x8,%r10
  404f91:	48 83 c0 08          	add    $0x8,%rax
  404f95:	48 ff cf             	dec    %rdi
  404f98:	49 89 4a f8          	mov    %rcx,-0x8(%r10)
  404f9c:	48 89 50 f8          	mov    %rdx,-0x8(%rax)
  404fa0:	48 85 ff             	test   %rdi,%rdi
  404fa3:	7f e2                	jg     404f87 <spec_qsort.constprop.18+0xce7>
  404fa5:	e9 2f f5 ff ff       	jmpq   4044d9 <spec_qsort.constprop.18+0x239>
  404faa:	4c 89 d2             	mov    %r10,%rdx
  404fad:	49 c1 e8 02          	shr    $0x2,%r8
  404fb1:	48 29 fa             	sub    %rdi,%rdx
  404fb4:	49 8d 7c 24 10       	lea    0x10(%r12),%rdi
  404fb9:	4d 89 c1             	mov    %r8,%r9
  404fbc:	48 83 c2 10          	add    $0x10,%rdx
  404fc0:	49 39 d4             	cmp    %rdx,%r12
  404fc3:	0f 93 c2             	setae  %dl
  404fc6:	48 39 f9             	cmp    %rdi,%rcx
  404fc9:	40 0f 93 c7          	setae  %dil
  404fcd:	09 fa                	or     %edi,%edx
  404fcf:	83 e2 01             	and    $0x1,%edx
  404fd2:	0f 84 d4 03 00 00    	je     4053ac <spec_qsort.constprop.18+0x110c>
  404fd8:	49 8d 50 fc          	lea    -0x4(%r8),%rdx
  404fdc:	48 bb fb ff ff ff ff 	movabs $0x7ffffffffffffffb,%rbx
  404fe3:	ff ff 7f 
  404fe6:	48 39 da             	cmp    %rbx,%rdx
  404fe9:	0f 87 bd 03 00 00    	ja     4053ac <spec_qsort.constprop.18+0x110c>
  404fef:	4d 85 c0             	test   %r8,%r8
  404ff2:	41 b9 01 00 00 00    	mov    $0x1,%r9d
  404ff8:	4d 0f 4f c8          	cmovg  %r8,%r9
  404ffc:	31 d2                	xor    %edx,%edx
  404ffe:	4c 89 cf             	mov    %r9,%rdi
  405001:	48 c1 ef 02          	shr    $0x2,%rdi
  405005:	48 c1 e7 04          	shl    $0x4,%rdi
  405009:	c4 c1 78 10 04 14    	vmovups (%r12,%rdx,1),%xmm0
  40500f:	c5 f8 10 3c 11       	vmovups (%rcx,%rdx,1),%xmm7
  405014:	c4 c1 78 11 3c 14    	vmovups %xmm7,(%r12,%rdx,1)
  40501a:	c5 f8 11 04 11       	vmovups %xmm0,(%rcx,%rdx,1)
  40501f:	48 83 c2 10          	add    $0x10,%rdx
  405023:	48 39 fa             	cmp    %rdi,%rdx
  405026:	75 e1                	jne    405009 <spec_qsort.constprop.18+0xd69>
  405028:	4c 89 ca             	mov    %r9,%rdx
  40502b:	48 83 e2 fc          	and    $0xfffffffffffffffc,%rdx
  40502f:	48 8d 3c 95 00 00 00 	lea    0x0(,%rdx,4),%rdi
  405036:	00 
  405037:	49 29 d0             	sub    %rdx,%r8
  40503a:	4d 8d 1c 3c          	lea    (%r12,%rdi,1),%r11
  40503e:	48 01 f9             	add    %rdi,%rcx
  405041:	49 39 d1             	cmp    %rdx,%r9
  405044:	74 35                	je     40507b <spec_qsort.constprop.18+0xddb>
  405046:	41 8b 13             	mov    (%r11),%edx
  405049:	8b 39                	mov    (%rcx),%edi
  40504b:	41 89 3b             	mov    %edi,(%r11)
  40504e:	89 11                	mov    %edx,(%rcx)
  405050:	49 8d 50 ff          	lea    -0x1(%r8),%rdx
  405054:	48 85 d2             	test   %rdx,%rdx
  405057:	7e 22                	jle    40507b <spec_qsort.constprop.18+0xddb>
  405059:	41 8b 53 04          	mov    0x4(%r11),%edx
  40505d:	8b 79 04             	mov    0x4(%rcx),%edi
  405060:	41 89 7b 04          	mov    %edi,0x4(%r11)
  405064:	89 51 04             	mov    %edx,0x4(%rcx)
  405067:	49 83 f8 02          	cmp    $0x2,%r8
  40506b:	74 0e                	je     40507b <spec_qsort.constprop.18+0xddb>
  40506d:	41 8b 53 08          	mov    0x8(%r11),%edx
  405071:	8b 79 08             	mov    0x8(%rcx),%edi
  405074:	41 89 7b 08          	mov    %edi,0x8(%r11)
  405078:	89 51 08             	mov    %edx,0x8(%rcx)
  40507b:	48 85 c0             	test   %rax,%rax
  40507e:	0f 84 55 f4 ff ff    	je     4044d9 <spec_qsort.constprop.18+0x239>
  405084:	48 89 eb             	mov    %rbp,%rbx
  405087:	48 63 d0             	movslq %eax,%rdx
  40508a:	48 29 c3             	sub    %rax,%rbx
  40508d:	48 89 d8             	mov    %rbx,%rax
  405090:	e9 18 fb ff ff       	jmpq   404bad <spec_qsort.constprop.18+0x90d>
  405095:	41 8b 0a             	mov    (%r10),%ecx
  405098:	8b 38                	mov    (%rax),%edi
  40509a:	49 83 c2 04          	add    $0x4,%r10
  40509e:	48 83 c0 04          	add    $0x4,%rax
  4050a2:	48 ff ca             	dec    %rdx
  4050a5:	41 89 7a fc          	mov    %edi,-0x4(%r10)
  4050a9:	89 48 fc             	mov    %ecx,-0x4(%rax)
  4050ac:	48 85 d2             	test   %rdx,%rdx
  4050af:	7f e4                	jg     405095 <spec_qsort.constprop.18+0xdf5>
  4050b1:	e9 23 f4 ff ff       	jmpq   4044d9 <spec_qsort.constprop.18+0x239>
  4050b6:	49 8d 74 24 08       	lea    0x8(%r12),%rsi
  4050bb:	4b 8d 3c f4          	lea    (%r12,%r14,8),%rdi
  4050bf:	48 39 fe             	cmp    %rdi,%rsi
  4050c2:	0f 83 66 f5 ff ff    	jae    40462e <spec_qsort.constprop.18+0x38e>
  4050c8:	0f 1f 84 00 00 00 00 	nopl   0x0(%rax,%rax,1)
  4050cf:	00 
  4050d0:	48 89 f0             	mov    %rsi,%rax
  4050d3:	eb 29                	jmp    4050fe <spec_qsort.constprop.18+0xe5e>
  4050d5:	90                   	nop
  4050d6:	66 2e 0f 1f 84 00 00 	nopw   %cs:0x0(%rax,%rax,1)
  4050dd:	00 00 00 
  4050e0:	8b 1a                	mov    (%rdx),%ebx
  4050e2:	39 19                	cmp    %ebx,(%rcx)
  4050e4:	7c 2f                	jl     405115 <spec_qsort.constprop.18+0xe75>
  4050e6:	45 85 ed             	test   %r13d,%r13d
  4050e9:	75 45                	jne    405130 <spec_qsort.constprop.18+0xe90>
  4050eb:	c5 f8 10 08          	vmovups (%rax),%xmm1
  4050ef:	c4 e3 71 0f c1 08    	vpalignr $0x8,%xmm1,%xmm1,%xmm0
  4050f5:	c5 f8 11 00          	vmovups %xmm0,(%rax)
  4050f9:	49 39 c4             	cmp    %rax,%r12
  4050fc:	73 17                	jae    405115 <spec_qsort.constprop.18+0xe75>
  4050fe:	48 83 e8 08          	sub    $0x8,%rax
  405102:	48 8b 08             	mov    (%rax),%rcx
  405105:	48 8b 50 08          	mov    0x8(%rax),%rdx
  405109:	48 8b 59 38          	mov    0x38(%rcx),%rbx
  40510d:	48 39 5a 38          	cmp    %rbx,0x38(%rdx)
  405111:	7c d3                	jl     4050e6 <spec_qsort.constprop.18+0xe46>
  405113:	7e cb                	jle    4050e0 <spec_qsort.constprop.18+0xe40>
  405115:	48 83 c6 08          	add    $0x8,%rsi
  405119:	48 39 f7             	cmp    %rsi,%rdi
  40511c:	77 b2                	ja     4050d0 <spec_qsort.constprop.18+0xe30>
  40511e:	48 83 c4 38          	add    $0x38,%rsp
  405122:	5b                   	pop    %rbx
  405123:	5d                   	pop    %rbp
  405124:	41 5c                	pop    %r12
  405126:	41 5d                	pop    %r13
  405128:	41 5e                	pop    %r14
  40512a:	41 5f                	pop    %r15
  40512c:	c3                   	retq   
  40512d:	0f 1f 00             	nopl   (%rax)
  405130:	41 83 ff 01          	cmp    $0x1,%r15d
  405134:	74 73                	je     4051a9 <spec_qsort.constprop.18+0xf09>
  405136:	0f b6 50 08          	movzbl 0x8(%rax),%edx
  40513a:	0f b6 08             	movzbl (%rax),%ecx
  40513d:	88 10                	mov    %dl,(%rax)
  40513f:	88 48 08             	mov    %cl,0x8(%rax)
  405142:	0f b6 50 09          	movzbl 0x9(%rax),%edx
  405146:	0f b6 48 01          	movzbl 0x1(%rax),%ecx
  40514a:	88 50 01             	mov    %dl,0x1(%rax)
  40514d:	88 48 09             	mov    %cl,0x9(%rax)
  405150:	0f b6 50 0a          	movzbl 0xa(%rax),%edx
  405154:	0f b6 48 02          	movzbl 0x2(%rax),%ecx
  405158:	88 50 02             	mov    %dl,0x2(%rax)
  40515b:	88 48 0a             	mov    %cl,0xa(%rax)
  40515e:	0f b6 50 0b          	movzbl 0xb(%rax),%edx
  405162:	0f b6 48 03          	movzbl 0x3(%rax),%ecx
  405166:	88 50 03             	mov    %dl,0x3(%rax)
  405169:	88 48 0b             	mov    %cl,0xb(%rax)
  40516c:	0f b6 50 0c          	movzbl 0xc(%rax),%edx
  405170:	0f b6 48 04          	movzbl 0x4(%rax),%ecx
  405174:	88 50 04             	mov    %dl,0x4(%rax)
  405177:	88 48 0c             	mov    %cl,0xc(%rax)
  40517a:	0f b6 50 0d          	movzbl 0xd(%rax),%edx
  40517e:	0f b6 48 05          	movzbl 0x5(%rax),%ecx
  405182:	88 50 05             	mov    %dl,0x5(%rax)
  405185:	88 48 0d             	mov    %cl,0xd(%rax)
  405188:	0f b6 50 0e          	movzbl 0xe(%rax),%edx
  40518c:	0f b6 48 06          	movzbl 0x6(%rax),%ecx
  405190:	88 50 06             	mov    %dl,0x6(%rax)
  405193:	88 48 0e             	mov    %cl,0xe(%rax)
  405196:	0f b6 50 0f          	movzbl 0xf(%rax),%edx
  40519a:	0f b6 48 07          	movzbl 0x7(%rax),%ecx
  40519e:	88 50 07             	mov    %dl,0x7(%rax)
  4051a1:	88 48 0f             	mov    %cl,0xf(%rax)
  4051a4:	e9 50 ff ff ff       	jmpq   4050f9 <spec_qsort.constprop.18+0xe59>
  4051a9:	8b 50 08             	mov    0x8(%rax),%edx
  4051ac:	8b 08                	mov    (%rax),%ecx
  4051ae:	89 10                	mov    %edx,(%rax)
  4051b0:	89 48 08             	mov    %ecx,0x8(%rax)
  4051b3:	8b 50 0c             	mov    0xc(%rax),%edx
  4051b6:	8b 48 04             	mov    0x4(%rax),%ecx
  4051b9:	89 50 04             	mov    %edx,0x4(%rax)
  4051bc:	89 48 0c             	mov    %ecx,0xc(%rax)
  4051bf:	e9 35 ff ff ff       	jmpq   4050f9 <spec_qsort.constprop.18+0xe59>
  4051c4:	4c 3b 4c 24 10       	cmp    0x10(%rsp),%r9
  4051c9:	7c 12                	jl     4051dd <spec_qsort.constprop.18+0xf3d>
  4051cb:	7f 47                	jg     405214 <spec_qsort.constprop.18+0xf74>
  4051cd:	4c 8b 5c 24 08       	mov    0x8(%rsp),%r11
  4051d2:	8b 1e                	mov    (%rsi),%ebx
  4051d4:	41 39 1b             	cmp    %ebx,(%r11)
  4051d7:	0f 8c 45 fc ff ff    	jl     404e22 <spec_qsort.constprop.18+0xb82>
  4051dd:	48 89 eb             	mov    %rbp,%rbx
  4051e0:	49 39 e9             	cmp    %rbp,%r9
  4051e3:	0f 8c 54 01 00 00    	jl     40533d <spec_qsort.constprop.18+0x109d>
  4051e9:	49 89 d2             	mov    %rdx,%r10
  4051ec:	0f 8f 23 f1 ff ff    	jg     404315 <spec_qsort.constprop.18+0x75>
  4051f2:	48 8b 6c 24 18       	mov    0x18(%rsp),%rbp
  4051f7:	44 8b 1e             	mov    (%rsi),%r11d
  4051fa:	44 39 5d 00          	cmp    %r11d,0x0(%rbp)
  4051fe:	0f 8c 11 f1 ff ff    	jl     404315 <spec_qsort.constprop.18+0x75>
  405204:	49 89 d9             	mov    %rbx,%r9
  405207:	48 89 ee             	mov    %rbp,%rsi
  40520a:	4c 8b 54 24 20       	mov    0x20(%rsp),%r10
  40520f:	e9 01 f1 ff ff       	jmpq   404315 <spec_qsort.constprop.18+0x75>
  405214:	4c 8b 4c 24 10       	mov    0x10(%rsp),%r9
  405219:	48 8b 74 24 08       	mov    0x8(%rsp),%rsi
  40521e:	e9 f2 f0 ff ff       	jmpq   404315 <spec_qsort.constprop.18+0x75>
  405223:	49 8b 1a             	mov    (%r10),%rbx
  405226:	48 8b 6b 38          	mov    0x38(%rbx),%rbp
  40522a:	48 89 6c 24 28       	mov    %rbp,0x28(%rsp)
  40522f:	48 39 6c 24 18       	cmp    %rbp,0x18(%rsp)
  405234:	7f 11                	jg     405247 <spec_qsort.constprop.18+0xfa7>
  405236:	0f 8c fc fa ff ff    	jl     404d38 <spec_qsort.constprop.18+0xa98>
  40523c:	8b 2b                	mov    (%rbx),%ebp
  40523e:	41 39 2b             	cmp    %ebp,(%r11)
  405241:	0f 8c f1 fa ff ff    	jl     404d38 <spec_qsort.constprop.18+0xa98>
  405247:	4c 89 24 24          	mov    %r12,(%rsp)
  40524b:	48 8b 6c 24 28       	mov    0x28(%rsp),%rbp
  405250:	48 39 6c 24 10       	cmp    %rbp,0x10(%rsp)
  405255:	0f 8f dd fa ff ff    	jg     404d38 <spec_qsort.constprop.18+0xa98>
  40525b:	4c 89 14 24          	mov    %r10,(%rsp)
  40525f:	0f 8c d3 fa ff ff    	jl     404d38 <spec_qsort.constprop.18+0xa98>
  405265:	4c 8b 5c 24 08       	mov    0x8(%rsp),%r11
  40526a:	8b 1b                	mov    (%rbx),%ebx
  40526c:	41 39 1b             	cmp    %ebx,(%r11)
  40526f:	4d 0f 4d d4          	cmovge %r12,%r10
  405273:	4c 89 14 24          	mov    %r10,(%rsp)
  405277:	e9 bc fa ff ff       	jmpq   404d38 <spec_qsort.constprop.18+0xa98>
  40527c:	48 8b 5c 24 08       	mov    0x8(%rsp),%rbx
  405281:	4c 8b 1b             	mov    (%rbx),%r11
  405284:	49 8b 5b 38          	mov    0x38(%r11),%rbx
  405288:	48 39 df             	cmp    %rbx,%rdi
  40528b:	7f 12                	jg     40529f <spec_qsort.constprop.18+0xfff>
  40528d:	0f 8c 25 fb ff ff    	jl     404db8 <spec_qsort.constprop.18+0xb18>
  405293:	41 8b 2b             	mov    (%r11),%ebp
  405296:	41 39 28             	cmp    %ebp,(%r8)
  405299:	0f 8c 19 fb ff ff    	jl     404db8 <spec_qsort.constprop.18+0xb18>
  40529f:	48 8b 7c 24 10       	mov    0x10(%rsp),%rdi
  4052a4:	48 39 df             	cmp    %rbx,%rdi
  4052a7:	7f 12                	jg     4052bb <spec_qsort.constprop.18+0x101b>
  4052a9:	0f 8c fe fa ff ff    	jl     404dad <spec_qsort.constprop.18+0xb0d>
  4052af:	41 8b 03             	mov    (%r11),%eax
  4052b2:	41 39 02             	cmp    %eax,(%r10)
  4052b5:	0f 8c f2 fa ff ff    	jl     404dad <spec_qsort.constprop.18+0xb0d>
  4052bb:	4d 89 d0             	mov    %r10,%r8
  4052be:	48 8b 44 24 18       	mov    0x18(%rsp),%rax
  4052c3:	e9 f0 fa ff ff       	jmpq   404db8 <spec_qsort.constprop.18+0xb18>
  4052c8:	49 89 d2             	mov    %rdx,%r10
  4052cb:	49 39 e9             	cmp    %rbp,%r9
  4052ce:	0f 8c 41 f0 ff ff    	jl     404315 <spec_qsort.constprop.18+0x75>
  4052d4:	7f 67                	jg     40533d <spec_qsort.constprop.18+0x109d>
  4052d6:	4c 8b 5c 24 18       	mov    0x18(%rsp),%r11
  4052db:	8b 1e                	mov    (%rsi),%ebx
  4052dd:	41 39 1b             	cmp    %ebx,(%r11)
  4052e0:	0f 8d 2f f0 ff ff    	jge    404315 <spec_qsort.constprop.18+0x75>
  4052e6:	4c 89 de             	mov    %r11,%rsi
  4052e9:	49 89 e9             	mov    %rbp,%r9
  4052ec:	4c 8b 54 24 20       	mov    0x20(%rsp),%r10
  4052f1:	e9 1f f0 ff ff       	jmpq   404315 <spec_qsort.constprop.18+0x75>
  4052f6:	4c 89 e2             	mov    %r12,%rdx
  4052f9:	48 8b 3a             	mov    (%rdx),%rdi
  4052fc:	4c 8b 09             	mov    (%rcx),%r9
  4052ff:	48 83 c2 08          	add    $0x8,%rdx
  405303:	48 83 c1 08          	add    $0x8,%rcx
  405307:	49 ff c8             	dec    %r8
  40530a:	4c 89 4a f8          	mov    %r9,-0x8(%rdx)
  40530e:	48 89 79 f8          	mov    %rdi,-0x8(%rcx)
  405312:	4d 85 c0             	test   %r8,%r8
  405315:	7f e2                	jg     4052f9 <spec_qsort.constprop.18+0x1059>
  405317:	e9 b9 fb ff ff       	jmpq   404ed5 <spec_qsort.constprop.18+0xc35>
  40531c:	41 8b 34 24          	mov    (%r12),%esi
  405320:	8b 38                	mov    (%rax),%edi
  405322:	41 89 3c 24          	mov    %edi,(%r12)
  405326:	89 30                	mov    %esi,(%rax)
  405328:	8b 78 04             	mov    0x4(%rax),%edi
  40532b:	41 8b 74 24 04       	mov    0x4(%r12),%esi
  405330:	41 89 7c 24 04       	mov    %edi,0x4(%r12)
  405335:	89 70 04             	mov    %esi,0x4(%rax)
  405338:	e9 2a f0 ff ff       	jmpq   404367 <spec_qsort.constprop.18+0xc7>
  40533d:	49 89 e9             	mov    %rbp,%r9
  405340:	48 8b 74 24 18       	mov    0x18(%rsp),%rsi
  405345:	4c 8b 54 24 20       	mov    0x20(%rsp),%r10
  40534a:	e9 c6 ef ff ff       	jmpq   404315 <spec_qsort.constprop.18+0x75>
  40534f:	4c 89 e7             	mov    %r12,%rdi
  405352:	48 01 ca             	add    %rcx,%rdx
  405355:	44 0f b6 07          	movzbl (%rdi),%r8d
  405359:	44 0f b6 09          	movzbl (%rcx),%r9d
  40535d:	48 ff c7             	inc    %rdi
  405360:	48 ff c1             	inc    %rcx
  405363:	44 88 4f ff          	mov    %r9b,-0x1(%rdi)
  405367:	44 88 41 ff          	mov    %r8b,-0x1(%rcx)
  40536b:	49 89 d0             	mov    %rdx,%r8
  40536e:	49 29 c8             	sub    %rcx,%r8
  405371:	4d 85 c0             	test   %r8,%r8
  405374:	7f df                	jg     405355 <spec_qsort.constprop.18+0x10b5>
  405376:	e9 c4 f5 ff ff       	jmpq   40493f <spec_qsort.constprop.18+0x69f>
  40537b:	4c 01 d1             	add    %r10,%rcx
  40537e:	41 0f b6 12          	movzbl (%r10),%edx
  405382:	0f b6 38             	movzbl (%rax),%edi
  405385:	49 ff c2             	inc    %r10
  405388:	48 ff c0             	inc    %rax
  40538b:	41 88 7a ff          	mov    %dil,-0x1(%r10)
  40538f:	88 50 ff             	mov    %dl,-0x1(%rax)
  405392:	48 89 ca             	mov    %rcx,%rdx
  405395:	4c 29 d2             	sub    %r10,%rdx
  405398:	48 85 d2             	test   %rdx,%rdx
  40539b:	7f e1                	jg     40537e <spec_qsort.constprop.18+0x10de>
  40539d:	e9 37 f1 ff ff       	jmpq   4044d9 <spec_qsort.constprop.18+0x239>
  4053a2:	48 8b 7c 24 10       	mov    0x10(%rsp),%rdi
  4053a7:	e9 0f ff ff ff       	jmpq   4052bb <spec_qsort.constprop.18+0x101b>
  4053ac:	4c 89 e2             	mov    %r12,%rdx
  4053af:	8b 3a                	mov    (%rdx),%edi
  4053b1:	44 8b 01             	mov    (%rcx),%r8d
  4053b4:	48 83 c2 04          	add    $0x4,%rdx
  4053b8:	48 83 c1 04          	add    $0x4,%rcx
  4053bc:	49 ff c9             	dec    %r9
  4053bf:	44 89 42 fc          	mov    %r8d,-0x4(%rdx)
  4053c3:	89 79 fc             	mov    %edi,-0x4(%rcx)
  4053c6:	4d 85 c9             	test   %r9,%r9
  4053c9:	7f e4                	jg     4053af <spec_qsort.constprop.18+0x110f>
  4053cb:	e9 ab fc ff ff       	jmpq   40507b <spec_qsort.constprop.18+0xddb>

00000000004053d0 <switch_arcs.constprop.17>:
  4053d0:	41 57                	push   %r15
  4053d2:	41 56                	push   %r14
  4053d4:	4d 89 c7             	mov    %r8,%r15
  4053d7:	41 55                	push   %r13
  4053d9:	41 54                	push   %r12
  4053db:	55                   	push   %rbp
  4053dc:	53                   	push   %rbx
  4053dd:	4c 39 07             	cmp    %r8,(%rdi)
  4053e0:	4c 0f 4e 3f          	cmovle (%rdi),%r15
  4053e4:	4d 85 ff             	test   %r15,%r15
  4053e7:	0f 8e b4 01 00 00    	jle    4055a1 <switch_arcs.constprop.17+0x1d1>
  4053ed:	45 31 e4             	xor    %r12d,%r12d
  4053f0:	31 c0                	xor    %eax,%eax
  4053f2:	31 ed                	xor    %ebp,%ebp
  4053f4:	eb 20                	jmp    405416 <switch_arcs.constprop.17+0x46>
  4053f6:	66 2e 0f 1f 84 00 00 	nopw   %cs:0x0(%rax,%rax,1)
  4053fd:	00 00 00 
  405400:	0f 84 8a 01 00 00    	je     405590 <switch_arcs.constprop.17+0x1c0>
  405406:	48 ff c5             	inc    %rbp
  405409:	49 83 c4 48          	add    $0x48,%r12
  40540d:	49 39 ef             	cmp    %rbp,%r15
  405410:	0f 84 6d 01 00 00    	je     405583 <switch_arcs.constprop.17+0x1b3>
  405416:	48 8b 3e             	mov    (%rsi),%rdi
  405419:	4c 01 e7             	add    %r12,%rdi
  40541c:	66 83 7f 20 00       	cmpw   $0x0,0x20(%rdi)
  405421:	75 e3                	jne    405406 <switch_arcs.constprop.17+0x36>
  405423:	4c 8b 5f 38          	mov    0x38(%rdi),%r11
  405427:	4c 3b 5a 38          	cmp    0x38(%rdx),%r11
  40542b:	7d d3                	jge    405400 <switch_arcs.constprop.17+0x30>
  40542d:	44 8b 2f             	mov    (%rdi),%r13d
  405430:	c5 f8 10 12          	vmovups (%rdx),%xmm2
  405434:	48 8b 5f 08          	mov    0x8(%rdi),%rbx
  405438:	48 ff c0             	inc    %rax
  40543b:	41 ba 48 00 00 00    	mov    $0x48,%r10d
  405441:	4c 8b 77 10          	mov    0x10(%rdi),%r14
  405445:	4c 8b 47 18          	mov    0x18(%rdi),%r8
  405449:	c5 f8 11 17          	vmovups %xmm2,(%rdi)
  40544d:	c5 f8 10 5a 10       	vmovups 0x10(%rdx),%xmm3
  405452:	c5 f8 11 5f 10       	vmovups %xmm3,0x10(%rdi)
  405457:	c5 f8 10 62 20       	vmovups 0x20(%rdx),%xmm4
  40545c:	c5 f8 11 67 20       	vmovups %xmm4,0x20(%rdi)
  405461:	c5 f8 10 6a 30       	vmovups 0x30(%rdx),%xmm5
  405466:	c5 f8 11 6f 30       	vmovups %xmm5,0x30(%rdi)
  40546b:	4c 8b 4a 40          	mov    0x40(%rdx),%r9
  40546f:	4c 89 4f 40          	mov    %r9,0x40(%rdi)
  405473:	4c 8b 8a 80 00 00 00 	mov    0x80(%rdx),%r9
  40547a:	4c 3b 8a c8 00 00 00 	cmp    0xc8(%rdx),%r9
  405481:	bf 90 00 00 00       	mov    $0x90,%edi
  405486:	4c 89 72 10          	mov    %r14,0x10(%rdx)
  40548a:	4c 89 42 18          	mov    %r8,0x18(%rdx)
  40548e:	48 89 5a 40          	mov    %rbx,0x40(%rdx)
  405492:	48 89 5a 08          	mov    %rbx,0x8(%rdx)
  405496:	4c 89 5a 38          	mov    %r11,0x38(%rdx)
  40549a:	44 89 2a             	mov    %r13d,(%rdx)
  40549d:	41 0f 9e c1          	setle  %r9b
  4054a1:	49 0f 4f fa          	cmovg  %r10,%rdi
  4054a5:	45 0f b6 c9          	movzbl %r9b,%r9d
  4054a9:	49 83 c1 02          	add    $0x2,%r9
  4054ad:	4c 39 c9             	cmp    %r9,%rcx
  4054b0:	0f 8c 50 ff ff ff    	jl     405406 <switch_arcs.constprop.17+0x36>
  4054b6:	48 01 d7             	add    %rdx,%rdi
  4054b9:	c4 c1 f9 6e f6       	vmovq  %r14,%xmm6
  4054be:	c4 c1 f9 6e fb       	vmovq  %r11,%xmm7
  4054c3:	41 ba 01 00 00 00    	mov    $0x1,%r10d
  4054c9:	c4 c3 c9 22 c0 01    	vpinsrq $0x1,%r8,%xmm6,%xmm0
  4054cf:	c4 e3 c1 22 cb 01    	vpinsrq $0x1,%rbx,%xmm7,%xmm1
  4054d5:	4c 39 5f 38          	cmp    %r11,0x38(%rdi)
  4054d9:	7f 21                	jg     4054fc <switch_arcs.constprop.17+0x12c>
  4054db:	e9 26 ff ff ff       	jmpq   405406 <switch_arcs.constprop.17+0x36>
  4054e0:	4b 8d 3c c0          	lea    (%r8,%r8,8),%rdi
  4054e4:	48 8d 7c fa b8       	lea    -0x48(%rdx,%rdi,8),%rdi
  4054e9:	4c 8b 77 38          	mov    0x38(%rdi),%r14
  4054ed:	4d 89 ca             	mov    %r9,%r10
  4054f0:	4d 39 de             	cmp    %r11,%r14
  4054f3:	0f 8e 0d ff ff ff    	jle    405406 <switch_arcs.constprop.17+0x36>
  4054f9:	4d 89 c1             	mov    %r8,%r9
  4054fc:	4f 8d 04 d2          	lea    (%r10,%r10,8),%r8
  405500:	4c 8b 57 10          	mov    0x10(%rdi),%r10
  405504:	4e 8d 44 c2 b8       	lea    -0x48(%rdx,%r8,8),%r8
  405509:	4d 89 50 10          	mov    %r10,0x10(%r8)
  40550d:	4c 8b 57 18          	mov    0x18(%rdi),%r10
  405511:	4d 89 50 18          	mov    %r10,0x18(%r8)
  405515:	4c 8b 57 08          	mov    0x8(%rdi),%r10
  405519:	4d 89 50 08          	mov    %r10,0x8(%r8)
  40551d:	4d 89 50 40          	mov    %r10,0x40(%r8)
  405521:	4c 8b 57 38          	mov    0x38(%rdi),%r10
  405525:	4d 89 50 38          	mov    %r10,0x38(%r8)
  405529:	44 8b 17             	mov    (%rdi),%r10d
  40552c:	45 89 10             	mov    %r10d,(%r8)
  40552f:	4f 8d 04 09          	lea    (%r9,%r9,1),%r8
  405533:	c5 f8 11 47 10       	vmovups %xmm0,0x10(%rdi)
  405538:	48 89 5f 08          	mov    %rbx,0x8(%rdi)
  40553c:	c5 f8 11 4f 38       	vmovups %xmm1,0x38(%rdi)
  405541:	44 89 2f             	mov    %r13d,(%rdi)
  405544:	4c 39 c1             	cmp    %r8,%rcx
  405547:	7e 21                	jle    40556a <switch_arcs.constprop.17+0x19a>
  405549:	4d 89 ca             	mov    %r9,%r10
  40554c:	49 c1 e2 04          	shl    $0x4,%r10
  405550:	4d 01 c2             	add    %r8,%r10
  405553:	49 c1 e2 03          	shl    $0x3,%r10
  405557:	4a 8d 7c 12 b8       	lea    -0x48(%rdx,%r10,1),%rdi
  40555c:	4c 8b 77 38          	mov    0x38(%rdi),%r14
  405560:	4e 3b 74 12 38       	cmp    0x38(%rdx,%r10,1),%r14
  405565:	7d 86                	jge    4054ed <switch_arcs.constprop.17+0x11d>
  405567:	49 ff c0             	inc    %r8
  40556a:	4c 39 c1             	cmp    %r8,%rcx
  40556d:	0f 8d 6d ff ff ff    	jge    4054e0 <switch_arcs.constprop.17+0x110>
  405573:	48 ff c5             	inc    %rbp
  405576:	49 83 c4 48          	add    $0x48,%r12
  40557a:	49 39 ef             	cmp    %rbp,%r15
  40557d:	0f 85 93 fe ff ff    	jne    405416 <switch_arcs.constprop.17+0x46>
  405583:	5b                   	pop    %rbx
  405584:	5d                   	pop    %rbp
  405585:	41 5c                	pop    %r12
  405587:	41 5d                	pop    %r13
  405589:	41 5e                	pop    %r14
  40558b:	41 5f                	pop    %r15
  40558d:	c3                   	retq   
  40558e:	66 90                	xchg   %ax,%ax
  405590:	44 8b 2f             	mov    (%rdi),%r13d
  405593:	44 3b 2a             	cmp    (%rdx),%r13d
  405596:	0f 8c 94 fe ff ff    	jl     405430 <switch_arcs.constprop.17+0x60>
  40559c:	e9 65 fe ff ff       	jmpq   405406 <switch_arcs.constprop.17+0x36>
  4055a1:	5b                   	pop    %rbx
  4055a2:	31 c0                	xor    %eax,%eax
  4055a4:	5d                   	pop    %rbp
  4055a5:	41 5c                	pop    %r12
  4055a7:	41 5d                	pop    %r13
  4055a9:	41 5e                	pop    %r14
  4055ab:	41 5f                	pop    %r15
  4055ad:	c3                   	retq   
  4055ae:	66 90                	xchg   %ax,%ax

00000000004055b0 <master.constprop.6>:
  4055b0:	41 57                	push   %r15
  4055b2:	41 56                	push   %r14
  4055b4:	b9 04 00 00 00       	mov    $0x4,%ecx
  4055b9:	41 55                	push   %r13
  4055bb:	41 54                	push   %r12
  4055bd:	55                   	push   %rbp
  4055be:	53                   	push   %rbx
  4055bf:	48 81 ec 58 7f 00 00 	sub    $0x7f58,%rsp
  4055c6:	c5 fb 12 15 42 1b 20 	vmovddup 0x201b42(%rip),%xmm2        # 607110 <basket>
  4055cd:	00 
  4055ce:	c5 f8 28 05 5a 0d 00 	vmovaps 0xd5a(%rip),%xmm0        # 406330 <_IO_stdin_used+0x350>
  4055d5:	00 
  4055d6:	c5 f8 28 1d 62 0d 00 	vmovaps 0xd62(%rip),%xmm3        # 406340 <_IO_stdin_used+0x360>
  4055dd:	00 
  4055de:	c5 f8 28 3d 6a 0d 00 	vmovaps 0xd6a(%rip),%xmm7        # 406350 <_IO_stdin_used+0x370>
  4055e5:	00 
  4055e6:	48 8d 54 24 68       	lea    0x68(%rsp),%rdx
  4055eb:	c5 f8 28 35 6d 0d 00 	vmovaps 0xd6d(%rip),%xmm6        # 406360 <_IO_stdin_used+0x380>
  4055f2:	00 
  4055f3:	c5 f8 28 2d 75 0d 00 	vmovaps 0xd75(%rip),%xmm5        # 406370 <_IO_stdin_used+0x390>
  4055fa:	00 
  4055fb:	48 8b 3d 16 1b 20 00 	mov    0x201b16(%rip),%rdi        # 607118 <basket_sizes>
  405602:	4c 8b 35 4f 1d 20 00 	mov    0x201d4f(%rip),%r14        # 607358 <net+0x238>
  405609:	4c 8b 2d 50 1d 20 00 	mov    0x201d50(%rip),%r13        # 607360 <net+0x240>
  405610:	48 c7 07 00 00 00 00 	movq   $0x0,(%rdi)
  405617:	c5 f1 73 f0 05       	vpsllq $0x5,%xmm0,%xmm1
  40561c:	c5 f1 d4 ca          	vpaddq %xmm2,%xmm1,%xmm1
  405620:	c5 f9 d4 e6          	vpaddq %xmm6,%xmm0,%xmm4
  405624:	48 8d 42 40          	lea    0x40(%rdx),%rax
  405628:	c5 f8 11 0a          	vmovups %xmm1,(%rdx)
  40562c:	c5 f9 d4 cb          	vpaddq %xmm3,%xmm0,%xmm1
  405630:	c5 d9 73 f4 05       	vpsllq $0x5,%xmm4,%xmm4
  405635:	48 83 c1 04          	add    $0x4,%rcx
  405639:	c5 f1 73 f1 05       	vpsllq $0x5,%xmm1,%xmm1
  40563e:	c5 f1 d4 ca          	vpaddq %xmm2,%xmm1,%xmm1
  405642:	c5 d9 d4 e2          	vpaddq %xmm2,%xmm4,%xmm4
  405646:	0f 0d 8a 90 01 00 00 	prefetchw 0x190(%rdx)
  40564d:	c5 f8 11 4a 10       	vmovups %xmm1,0x10(%rdx)
  405652:	c5 f9 d4 cf          	vpaddq %xmm7,%xmm0,%xmm1
  405656:	c5 f8 11 62 20       	vmovups %xmm4,0x20(%rdx)
  40565b:	c5 f9 d4 c5          	vpaddq %xmm5,%xmm0,%xmm0
  40565f:	c5 f1 73 f1 05       	vpsllq $0x5,%xmm1,%xmm1
  405664:	c5 f1 d4 ca          	vpaddq %xmm2,%xmm1,%xmm1
  405668:	c5 f8 11 4a 30       	vmovups %xmm1,0x30(%rdx)
  40566d:	48 89 c2             	mov    %rax,%rdx
  405670:	48 81 f9 f0 07 00 00 	cmp    $0x7f0,%rcx
  405677:	75 9e                	jne    405617 <master.constprop.6+0x67>
  405679:	ba ec 07 00 00       	mov    $0x7ec,%edx
  40567e:	eb 05                	jmp    405685 <master.constprop.6+0xd5>
  405680:	ba ed 07 00 00       	mov    $0x7ed,%edx
  405685:	c5 f1 73 f0 05       	vpsllq $0x5,%xmm0,%xmm1
  40568a:	c5 f1 d4 ca          	vpaddq %xmm2,%xmm1,%xmm1
  40568e:	48 83 c0 10          	add    $0x10,%rax
  405692:	c5 f9 d4 c3          	vpaddq %xmm3,%xmm0,%xmm0
  405696:	c5 f8 11 48 f0       	vmovups %xmm1,-0x10(%rax)
  40569b:	48 81 fa ec 07 00 00 	cmp    $0x7ec,%rdx
  4056a2:	74 dc                	je     405680 <master.constprop.6+0xd0>
  4056a4:	48 83 3d 4c 1a 20 00 	cmpq   $0x0,0x201a4c(%rip)        # 6070f8 <opt>
  4056ab:	00 
  4056ac:	4d 89 f7             	mov    %r14,%r15
  4056af:	0f 85 16 05 00 00    	jne    405bcb <master.constprop.6+0x61b>
  4056b5:	48 8b 35 e4 1c 20 00 	mov    0x201ce4(%rip),%rsi        # 6073a0 <net+0x280>
  4056bc:	48 8b 1d 45 1a 20 00 	mov    0x201a45(%rip),%rbx        # 607108 <opt_basket>
  4056c3:	31 c9                	xor    %ecx,%ecx
  4056c5:	41 b8 01 00 00 00    	mov    $0x1,%r8d
  4056cb:	eb 15                	jmp    4056e2 <master.constprop.6+0x132>
  4056cd:	0f 1f 00             	nopl   (%rax)
  4056d0:	74 07                	je     4056d9 <master.constprop.6+0x129>
  4056d2:	66 83 7a 20 02       	cmpw   $0x2,0x20(%rdx)
  4056d7:	74 38                	je     405711 <master.constprop.6+0x161>
  4056d9:	49 ff c0             	inc    %r8
  4056dc:	49 83 f8 3d          	cmp    $0x3d,%r8
  4056e0:	74 6e                	je     405750 <master.constprop.6+0x1a0>
  4056e2:	4c 39 07             	cmp    %r8,(%rdi)
  4056e5:	7c 69                	jl     405750 <master.constprop.6+0x1a0>
  4056e7:	4a 8b 44 c4 60       	mov    0x60(%rsp,%r8,8),%rax
  4056ec:	48 83 78 18 00       	cmpq   $0x0,0x18(%rax)
  4056f1:	7e e6                	jle    4056d9 <master.constprop.6+0x129>
  4056f3:	48 8b 10             	mov    (%rax),%rdx
  4056f6:	4c 8b 4a 10          	mov    0x10(%rdx),%r9
  4056fa:	48 8b 42 08          	mov    0x8(%rdx),%rax
  4056fe:	49 2b 01             	sub    (%r9),%rax
  405701:	4c 8b 4a 18          	mov    0x18(%rdx),%r9
  405705:	49 03 01             	add    (%r9),%rax
  405708:	79 c6                	jns    4056d0 <master.constprop.6+0x120>
  40570a:	66 83 7a 20 01       	cmpw   $0x1,0x20(%rdx)
  40570f:	75 c8                	jne    4056d9 <master.constprop.6+0x129>
  405711:	48 ff c1             	inc    %rcx
  405714:	49 ff c0             	inc    %r8
  405717:	4c 8d 4c cc 60       	lea    0x60(%rsp,%rcx,8),%r9
  40571c:	4d 8b 11             	mov    (%r9),%r10
  40571f:	49 89 12             	mov    %rdx,(%r10)
  405722:	49 8b 11             	mov    (%r9),%rdx
  405725:	49 89 c2             	mov    %rax,%r10
  405728:	49 c1 fa 3f          	sar    $0x3f,%r10
  40572c:	48 89 42 08          	mov    %rax,0x8(%rdx)
  405730:	49 8b 11             	mov    (%r9),%rdx
  405733:	4c 31 d0             	xor    %r10,%rax
  405736:	48 89 42 10          	mov    %rax,0x10(%rdx)
  40573a:	4c 29 52 10          	sub    %r10,0x10(%rdx)
  40573e:	49 8b 01             	mov    (%r9),%rax
  405741:	48 c7 40 18 00 00 00 	movq   $0x0,0x18(%rax)
  405748:	00 
  405749:	49 83 f8 3d          	cmp    $0x3d,%r8
  40574d:	75 93                	jne    4056e2 <master.constprop.6+0x132>
  40574f:	90                   	nop
  405750:	4c 8b 15 99 19 20 00 	mov    0x201999(%rip),%r10        # 6070f0 <full_group_end_arc>
  405757:	4c 8d 04 f6          	lea    (%rsi,%rsi,8),%r8
  40575b:	48 89 0f             	mov    %rcx,(%rdi)
  40575e:	4c 89 f8             	mov    %r15,%rax
  405761:	49 c1 e0 03          	shl    $0x3,%r8
  405765:	4d 8d 48 b8          	lea    -0x48(%r8),%r9
  405769:	0f 1f 80 00 00 00 00 	nopl   0x0(%rax)
  405770:	4a 8d 14 08          	lea    (%rax,%r9,1),%rdx
  405774:	4e 8d 1c 00          	lea    (%rax,%r8,1),%r11
  405778:	49 39 c2             	cmp    %rax,%r10
  40577b:	4c 0f 46 da          	cmovbe %rdx,%r11
  40577f:	4c 39 d8             	cmp    %r11,%rax
  405782:	72 29                	jb     4057ad <master.constprop.6+0x1fd>
  405784:	e9 a7 00 00 00       	jmpq   405830 <master.constprop.6+0x280>
  405789:	0f 1f 80 00 00 00 00 	nopl   0x0(%rax)
  405790:	7e 0e                	jle    4057a0 <master.constprop.6+0x1f0>
  405792:	66 83 fe 02          	cmp    $0x2,%si
  405796:	74 3d                	je     4057d5 <master.constprop.6+0x225>
  405798:	0f 1f 84 00 00 00 00 	nopl   0x0(%rax,%rax,1)
  40579f:	00 
  4057a0:	48 83 c0 48          	add    $0x48,%rax
  4057a4:	4c 39 d8             	cmp    %r11,%rax
  4057a7:	0f 83 83 00 00 00    	jae    405830 <master.constprop.6+0x280>
  4057ad:	0f b7 70 20          	movzwl 0x20(%rax),%esi
  4057b1:	66 85 f6             	test   %si,%si
  4057b4:	7e ea                	jle    4057a0 <master.constprop.6+0x1f0>
  4057b6:	48 8b 68 10          	mov    0x10(%rax),%rbp
  4057ba:	48 8b 50 08          	mov    0x8(%rax),%rdx
  4057be:	48 2b 55 00          	sub    0x0(%rbp),%rdx
  4057c2:	48 8b 68 18          	mov    0x18(%rax),%rbp
  4057c6:	48 03 55 00          	add    0x0(%rbp),%rdx
  4057ca:	48 85 d2             	test   %rdx,%rdx
  4057cd:	79 c1                	jns    405790 <master.constprop.6+0x1e0>
  4057cf:	66 83 fe 01          	cmp    $0x1,%si
  4057d3:	75 cb                	jne    4057a0 <master.constprop.6+0x1f0>
  4057d5:	48 ff c1             	inc    %rcx
  4057d8:	48 89 d6             	mov    %rdx,%rsi
  4057db:	48 89 0f             	mov    %rcx,(%rdi)
  4057de:	48 8b 4c cc 60       	mov    0x60(%rsp,%rcx,8),%rcx
  4057e3:	48 c1 fe 3f          	sar    $0x3f,%rsi
  4057e7:	48 89 01             	mov    %rax,(%rcx)
  4057ea:	48 8b 0f             	mov    (%rdi),%rcx
  4057ed:	48 83 c0 48          	add    $0x48,%rax
  4057f1:	48 8b 4c cc 60       	mov    0x60(%rsp,%rcx,8),%rcx
  4057f6:	48 89 51 08          	mov    %rdx,0x8(%rcx)
  4057fa:	48 8b 0f             	mov    (%rdi),%rcx
  4057fd:	48 31 f2             	xor    %rsi,%rdx
  405800:	48 8b 4c cc 60       	mov    0x60(%rsp,%rcx,8),%rcx
  405805:	48 89 51 10          	mov    %rdx,0x10(%rcx)
  405809:	48 29 71 10          	sub    %rsi,0x10(%rcx)
  40580d:	48 8b 17             	mov    (%rdi),%rdx
  405810:	48 8b 54 d4 60       	mov    0x60(%rsp,%rdx,8),%rdx
  405815:	48 c7 42 18 00 00 00 	movq   $0x0,0x18(%rdx)
  40581c:	00 
  40581d:	48 8b 0f             	mov    (%rdi),%rcx
  405820:	4c 39 d8             	cmp    %r11,%rax
  405823:	72 88                	jb     4057ad <master.constprop.6+0x1fd>
  405825:	90                   	nop
  405826:	66 2e 0f 1f 84 00 00 	nopw   %cs:0x0(%rax,%rax,1)
  40582d:	00 00 00 
  405830:	4d 39 dd             	cmp    %r11,%r13
  405833:	4c 89 d8             	mov    %r11,%rax
  405836:	49 0f 46 c6          	cmovbe %r14,%rax
  40583a:	4c 39 f8             	cmp    %r15,%rax
  40583d:	74 0d                	je     40584c <master.constprop.6+0x29c>
  40583f:	48 83 f9 3b          	cmp    $0x3b,%rcx
  405843:	0f 8e 27 ff ff ff    	jle    405770 <master.constprop.6+0x1c0>
  405849:	49 89 c7             	mov    %rax,%r15
  40584c:	48 8b 44 cc 68       	mov    0x68(%rsp,%rcx,8),%rax
  405851:	48 c7 40 18 ff ff ff 	movq   $0xffffffffffffffff,0x18(%rax)
  405858:	ff 
  405859:	48 8b 37             	mov    (%rdi),%rsi
  40585c:	31 c0                	xor    %eax,%eax
  40585e:	48 85 f6             	test   %rsi,%rsi
  405861:	74 0f                	je     405872 <master.constprop.6+0x2c2>
  405863:	48 8d 7c 24 68       	lea    0x68(%rsp),%rdi
  405868:	e8 e3 d7 ff ff       	callq  403050 <spec_qsort.constprop.19>
  40586d:	48 8b 44 24 68       	mov    0x68(%rsp),%rax
  405872:	48 8b 0d 87 18 20 00 	mov    0x201887(%rip),%rcx        # 607100 <perm_p>
  405879:	48 89 03             	mov    %rax,(%rbx)
  40587c:	48 8d 44 24 68       	lea    0x68(%rsp),%rax
  405881:	48 89 01             	mov    %rax,(%rcx)
  405884:	48 8b 13             	mov    (%rbx),%rdx
  405887:	48 85 d2             	test   %rdx,%rdx
  40588a:	0f 84 30 03 00 00    	je     405bc0 <master.constprop.6+0x610>
  405890:	48 8b 1a             	mov    (%rdx),%rbx
  405893:	4c 8b 4a 08          	mov    0x8(%rdx),%r9
  405897:	ba 01 00 00 00       	mov    $0x1,%edx
  40589c:	48 89 5c 24 10       	mov    %rbx,0x10(%rsp)
  4058a1:	eb 24                	jmp    4058c7 <master.constprop.6+0x317>
  4058a3:	0f 1f 00             	nopl   (%rax)
  4058a6:	66 2e 0f 1f 84 00 00 	nopw   %cs:0x0(%rax,%rax,1)
  4058ad:	00 00 00 
  4058b0:	48 89 50 18          	mov    %rdx,0x18(%rax)
  4058b4:	48 8b 01             	mov    (%rcx),%rax
  4058b7:	48 ff c2             	inc    %rdx
  4058ba:	48 83 c0 08          	add    $0x8,%rax
  4058be:	48 89 01             	mov    %rax,(%rcx)
  4058c1:	48 83 fa 3d          	cmp    $0x3d,%rdx
  4058c5:	74 0a                	je     4058d1 <master.constprop.6+0x321>
  4058c7:	48 8b 00             	mov    (%rax),%rax
  4058ca:	48 83 78 18 00       	cmpq   $0x0,0x18(%rax)
  4058cf:	79 df                	jns    4058b0 <master.constprop.6+0x300>
  4058d1:	4d 85 c9             	test   %r9,%r9
  4058d4:	0f 84 e6 02 00 00    	je     405bc0 <master.constprop.6+0x610>
  4058da:	48 8b 44 24 10       	mov    0x10(%rsp),%rax
  4058df:	48 ff 05 9a 1a 20 00 	incq   0x201a9a(%rip)        # 607380 <net+0x260>
  4058e6:	48 8b 78 10          	mov    0x10(%rax),%rdi
  4058ea:	48 8b 48 18          	mov    0x18(%rax),%rcx
  4058ee:	48 89 f8             	mov    %rdi,%rax
  4058f1:	4d 85 c9             	test   %r9,%r9
  4058f4:	7e 06                	jle    4058fc <master.constprop.6+0x34c>
  4058f6:	48 89 c8             	mov    %rcx,%rax
  4058f9:	48 89 f9             	mov    %rdi,%rcx
  4058fc:	48 39 c8             	cmp    %rcx,%rax
  4058ff:	0f 84 89 04 00 00    	je     405d8e <master.constprop.6+0x7de>
  405905:	48 89 ca             	mov    %rcx,%rdx
  405908:	48 89 c6             	mov    %rax,%rsi
  40590b:	41 b8 01 00 00 00    	mov    $0x1,%r8d
  405911:	45 31 d2             	xor    %r10d,%r10d
  405914:	48 8b 6c 24 18       	mov    0x18(%rsp),%rbp
  405919:	eb 2f                	jmp    40594a <master.constprop.6+0x39a>
  40591b:	0f 1f 44 00 00       	nopl   0x0(%rax,%rax,1)
  405920:	44 8b 66 08          	mov    0x8(%rsi),%r12d
  405924:	4c 8b 5e 18          	mov    0x18(%rsi),%r11
  405928:	45 85 e4             	test   %r12d,%r12d
  40592b:	0f 84 5f 02 00 00    	je     405b90 <master.constprop.6+0x5e0>
  405931:	48 8b 5e 50          	mov    0x50(%rsi),%rbx
  405935:	49 39 d8             	cmp    %rbx,%r8
  405938:	7e 08                	jle    405942 <master.constprop.6+0x392>
  40593a:	31 ed                	xor    %ebp,%ebp
  40593c:	49 89 d8             	mov    %rbx,%r8
  40593f:	49 89 f2             	mov    %rsi,%r10
  405942:	4c 89 de             	mov    %r11,%rsi
  405945:	48 39 d6             	cmp    %rdx,%rsi
  405948:	74 35                	je     40597f <master.constprop.6+0x3cf>
  40594a:	48 8b 5a 58          	mov    0x58(%rdx),%rbx
  40594e:	48 39 5e 58          	cmp    %rbx,0x58(%rsi)
  405952:	7c cc                	jl     405920 <master.constprop.6+0x370>
  405954:	8b 5a 08             	mov    0x8(%rdx),%ebx
  405957:	4c 8b 5a 18          	mov    0x18(%rdx),%r11
  40595b:	85 db                	test   %ebx,%ebx
  40595d:	0f 85 fd 01 00 00    	jne    405b60 <master.constprop.6+0x5b0>
  405963:	48 8b 5a 50          	mov    0x50(%rdx),%rbx
  405967:	49 39 d8             	cmp    %rbx,%r8
  40596a:	7c 0b                	jl     405977 <master.constprop.6+0x3c7>
  40596c:	49 89 d8             	mov    %rbx,%r8
  40596f:	49 89 d2             	mov    %rdx,%r10
  405972:	bd 01 00 00 00       	mov    $0x1,%ebp
  405977:	4c 89 da             	mov    %r11,%rdx
  40597a:	48 39 d6             	cmp    %rdx,%rsi
  40597d:	75 cb                	jne    40594a <master.constprop.6+0x39a>
  40597f:	48 89 6c 24 18       	mov    %rbp,0x18(%rsp)
  405984:	4d 85 d2             	test   %r10,%r10
  405987:	0f 84 86 03 00 00    	je     405d13 <master.constprop.6+0x763>
  40598d:	48 83 7c 24 18 00    	cmpq   $0x0,0x18(%rsp)
  405993:	74 09                	je     40599e <master.constprop.6+0x3ee>
  405995:	48 89 c6             	mov    %rax,%rsi
  405998:	48 89 c8             	mov    %rcx,%rax
  40599b:	48 89 f1             	mov    %rsi,%rcx
  40599e:	49 8b 5a 30          	mov    0x30(%r10),%rbx
  4059a2:	4d 63 5a 08          	movslq 0x8(%r10),%r11
  4059a6:	49 8b 72 18          	mov    0x18(%r10),%rsi
  4059aa:	48 89 5c 24 28       	mov    %rbx,0x28(%rsp)
  4059af:	48 8b 5c 24 18       	mov    0x18(%rsp),%rbx
  4059b4:	49 39 db             	cmp    %rbx,%r11
  4059b7:	41 0f 94 c3          	sete   %r11b
  4059bb:	48 83 f3 01          	xor    $0x1,%rbx
  4059bf:	45 31 e4             	xor    %r12d,%r12d
  4059c2:	48 89 5c 24 20       	mov    %rbx,0x20(%rsp)
  4059c7:	48 8b 1d 52 19 20 00 	mov    0x201952(%rip),%rbx        # 607320 <net+0x200>
  4059ce:	45 0f b6 db          	movzbl %r11b,%r11d
  4059d2:	41 ff c3             	inc    %r11d
  4059d5:	48 39 c7             	cmp    %rax,%rdi
  4059d8:	66 44 89 5c 24 36    	mov    %r11w,0x36(%rsp)
  4059de:	41 0f 94 c4          	sete   %r12b
  4059e2:	48 89 5c 24 38       	mov    %rbx,0x38(%rsp)
  4059e7:	4d 85 c9             	test   %r9,%r9
  4059ea:	0f 8e 00 03 00 00    	jle    405cf0 <master.constprop.6+0x740>
  4059f0:	bb 01 00 00 00       	mov    $0x1,%ebx
  4059f5:	4c 29 c3             	sub    %r8,%rbx
  4059f8:	48 89 5c 24 08       	mov    %rbx,0x8(%rsp)
  4059fd:	48 39 c7             	cmp    %rax,%rdi
  405a00:	0f 84 f8 02 00 00    	je     405cfe <master.constprop.6+0x74e>
  405a06:	4c 89 cf             	mov    %r9,%rdi
  405a09:	4d 89 cb             	mov    %r9,%r11
  405a0c:	48 c1 ff 3f          	sar    $0x3f,%rdi
  405a10:	49 31 fb             	xor    %rdi,%r11
  405a13:	4c 29 df             	sub    %r11,%rdi
  405a16:	49 89 fb             	mov    %rdi,%r11
  405a19:	4d 01 1a             	add    %r11,(%r10)
  405a1c:	4c 89 d7             	mov    %r10,%rdi
  405a1f:	4c 8b 4f 10          	mov    0x10(%rdi),%r9
  405a23:	4d 85 c9             	test   %r9,%r9
  405a26:	74 35                	je     405a5d <master.constprop.6+0x4ad>
  405a28:	0f 1f 84 00 00 00 00 	nopl   0x0(%rax,%rax,1)
  405a2f:	00 
  405a30:	4d 01 19             	add    %r11,(%r9)
  405a33:	4c 89 cf             	mov    %r9,%rdi
  405a36:	4c 8b 4f 10          	mov    0x10(%rdi),%r9
  405a3a:	4d 85 c9             	test   %r9,%r9
  405a3d:	75 f1                	jne    405a30 <master.constprop.6+0x480>
  405a3f:	4c 39 d7             	cmp    %r10,%rdi
  405a42:	74 1e                	je     405a62 <master.constprop.6+0x4b2>
  405a44:	66 90                	xchg   %ax,%ax
  405a46:	66 2e 0f 1f 84 00 00 	nopw   %cs:0x0(%rax,%rax,1)
  405a4d:	00 00 00 
  405a50:	4c 8b 4f 20          	mov    0x20(%rdi),%r9
  405a54:	4d 85 c9             	test   %r9,%r9
  405a57:	75 d7                	jne    405a30 <master.constprop.6+0x480>
  405a59:	48 8b 7f 18          	mov    0x18(%rdi),%rdi
  405a5d:	4c 39 d7             	cmp    %r10,%rdi
  405a60:	75 ee                	jne    405a50 <master.constprop.6+0x4a0>
  405a62:	49 8b 5a 58          	mov    0x58(%r10),%rbx
  405a66:	4c 8b 48 18          	mov    0x18(%rax),%r9
  405a6a:	49 89 ca             	mov    %rcx,%r10
  405a6d:	4c 8b 5c 24 10       	mov    0x10(%rsp),%r11
  405a72:	48 39 c6             	cmp    %rax,%rsi
  405a75:	0f 84 34 03 00 00    	je     405daf <master.constprop.6+0x7ff>
  405a7b:	48 89 4c 24 50       	mov    %rcx,0x50(%rsp)
  405a80:	48 89 54 24 58       	mov    %rdx,0x58(%rsp)
  405a85:	48 89 d9             	mov    %rbx,%rcx
  405a88:	48 8b 54 24 20       	mov    0x20(%rsp),%rdx
  405a8d:	4c 89 74 24 40       	mov    %r14,0x40(%rsp)
  405a92:	4c 89 6c 24 48       	mov    %r13,0x48(%rsp)
  405a97:	eb 56                	jmp    405aef <master.constprop.6+0x53f>
  405a99:	0f 1f 80 00 00 00 00 	nopl   0x0(%rax)
  405aa0:	48 8b 78 50          	mov    0x50(%rax),%rdi
  405aa4:	4c 29 c7             	sub    %r8,%rdi
  405aa7:	4c 8b 50 58          	mov    0x58(%rax),%r10
  405aab:	4c 8b 68 30          	mov    0x30(%rax),%r13
  405aaf:	c5 fa 7e 6c 24 08    	vmovq  0x8(%rsp),%xmm5
  405ab5:	c4 e3 d1 22 c1 01    	vpinsrq $0x1,%rcx,%xmm5,%xmm0
  405abb:	48 89 d9             	mov    %rbx,%rcx
  405abe:	44 89 60 08          	mov    %r12d,0x8(%rax)
  405ac2:	4c 89 58 30          	mov    %r11,0x30(%rax)
  405ac6:	49 89 ec             	mov    %rbp,%r12
  405ac9:	c5 f8 11 40 50       	vmovups %xmm0,0x50(%rax)
  405ace:	48 89 7c 24 08       	mov    %rdi,0x8(%rsp)
  405ad3:	4c 29 d1             	sub    %r10,%rcx
  405ad6:	4d 8b 71 18          	mov    0x18(%r9),%r14
  405ada:	49 89 c2             	mov    %rax,%r10
  405add:	4d 89 eb             	mov    %r13,%r11
  405ae0:	4c 39 ce             	cmp    %r9,%rsi
  405ae3:	0f 84 07 01 00 00    	je     405bf0 <master.constprop.6+0x640>
  405ae9:	4c 89 c8             	mov    %r9,%rax
  405aec:	4d 89 f1             	mov    %r14,%r9
  405aef:	48 8b 78 20          	mov    0x20(%rax),%rdi
  405af3:	48 8b 68 28          	mov    0x28(%rax),%rbp
  405af7:	48 85 ff             	test   %rdi,%rdi
  405afa:	74 0c                	je     405b08 <master.constprop.6+0x558>
  405afc:	48 89 6f 28          	mov    %rbp,0x28(%rdi)
  405b00:	48 8b 68 28          	mov    0x28(%rax),%rbp
  405b04:	48 8b 78 20          	mov    0x20(%rax),%rdi
  405b08:	48 85 ed             	test   %rbp,%rbp
  405b0b:	0f 84 cf 00 00 00    	je     405be0 <master.constprop.6+0x630>
  405b11:	48 89 7d 20          	mov    %rdi,0x20(%rbp)
  405b15:	4c 89 50 18          	mov    %r10,0x18(%rax)
  405b19:	49 8b 7a 10          	mov    0x10(%r10),%rdi
  405b1d:	48 89 78 20          	mov    %rdi,0x20(%rax)
  405b21:	48 85 ff             	test   %rdi,%rdi
  405b24:	74 04                	je     405b2a <master.constprop.6+0x57a>
  405b26:	48 89 47 28          	mov    %rax,0x28(%rdi)
  405b2a:	49 89 42 10          	mov    %rax,0x10(%r10)
  405b2e:	8b 78 08             	mov    0x8(%rax),%edi
  405b31:	31 ed                	xor    %ebp,%ebp
  405b33:	48 c7 40 28 00 00 00 	movq   $0x0,0x28(%rax)
  405b3a:	00 
  405b3b:	85 ff                	test   %edi,%edi
  405b3d:	40 0f 94 c5          	sete   %bpl
  405b41:	48 39 ea             	cmp    %rbp,%rdx
  405b44:	0f 85 56 ff ff ff    	jne    405aa0 <master.constprop.6+0x4f0>
  405b4a:	48 8b 78 50          	mov    0x50(%rax),%rdi
  405b4e:	4c 01 c7             	add    %r8,%rdi
  405b51:	e9 51 ff ff ff       	jmpq   405aa7 <master.constprop.6+0x4f7>
  405b56:	66 2e 0f 1f 84 00 00 	nopw   %cs:0x0(%rax,%rax,1)
  405b5d:	00 00 00 
  405b60:	49 83 7b 18 00       	cmpq   $0x0,0x18(%r11)
  405b65:	0f 84 0c fe ff ff    	je     405977 <master.constprop.6+0x3c7>
  405b6b:	bb 01 00 00 00       	mov    $0x1,%ebx
  405b70:	48 2b 5a 50          	sub    0x50(%rdx),%rbx
  405b74:	49 39 d8             	cmp    %rbx,%r8
  405b77:	0f 8c fa fd ff ff    	jl     405977 <master.constprop.6+0x3c7>
  405b7d:	e9 ea fd ff ff       	jmpq   40596c <master.constprop.6+0x3bc>
  405b82:	0f 1f 40 00          	nopl   0x0(%rax)
  405b86:	66 2e 0f 1f 84 00 00 	nopw   %cs:0x0(%rax,%rax,1)
  405b8d:	00 00 00 
  405b90:	49 83 7b 18 00       	cmpq   $0x0,0x18(%r11)
  405b95:	0f 84 a7 fd ff ff    	je     405942 <master.constprop.6+0x392>
  405b9b:	bb 01 00 00 00       	mov    $0x1,%ebx
  405ba0:	48 2b 5e 50          	sub    0x50(%rsi),%rbx
  405ba4:	49 39 d8             	cmp    %rbx,%r8
  405ba7:	0f 8e 95 fd ff ff    	jle    405942 <master.constprop.6+0x392>
  405bad:	e9 88 fd ff ff       	jmpq   40593a <master.constprop.6+0x38a>
  405bb2:	0f 1f 40 00          	nopl   0x0(%rax)
  405bb6:	66 2e 0f 1f 84 00 00 	nopw   %cs:0x0(%rax,%rax,1)
  405bbd:	00 00 00 
  405bc0:	48 c7 05 2d 15 20 00 	movq   $0x1,0x20152d(%rip)        # 6070f8 <opt>
  405bc7:	01 00 00 00 
  405bcb:	48 81 c4 58 7f 00 00 	add    $0x7f58,%rsp
  405bd2:	5b                   	pop    %rbx
  405bd3:	5d                   	pop    %rbp
  405bd4:	41 5c                	pop    %r12
  405bd6:	41 5d                	pop    %r13
  405bd8:	41 5e                	pop    %r14
  405bda:	41 5f                	pop    %r15
  405bdc:	c3                   	retq   
  405bdd:	0f 1f 00             	nopl   (%rax)
  405be0:	49 89 79 10          	mov    %rdi,0x10(%r9)
  405be4:	e9 2c ff ff ff       	jmpq   405b15 <master.constprop.6+0x565>
  405be9:	0f 1f 80 00 00 00 00 	nopl   0x0(%rax)
  405bf0:	4c 8b 74 24 40       	mov    0x40(%rsp),%r14
  405bf5:	4c 8b 6c 24 48       	mov    0x48(%rsp),%r13
  405bfa:	48 8b 4c 24 50       	mov    0x50(%rsp),%rcx
  405bff:	48 8b 54 24 58       	mov    0x58(%rsp),%rdx
  405c04:	4c 8b 15 ed 14 20 00 	mov    0x2014ed(%rip),%r10        # 6070f8 <opt>
  405c0b:	4c 3b 44 24 38       	cmp    0x38(%rsp),%r8
  405c10:	0f 8e b2 00 00 00    	jle    405cc8 <master.constprop.6+0x718>
  405c16:	4c 8b 5c 24 20       	mov    0x20(%rsp),%r11
  405c1b:	48 39 d6             	cmp    %rdx,%rsi
  405c1e:	74 27                	je     405c47 <master.constprop.6+0x697>
  405c20:	48 8b 46 50          	mov    0x50(%rsi),%rax
  405c24:	4c 63 4e 08          	movslq 0x8(%rsi),%r9
  405c28:	48 29 5e 58          	sub    %rbx,0x58(%rsi)
  405c2c:	49 8d 3c 00          	lea    (%r8,%rax,1),%rdi
  405c30:	4c 29 c0             	sub    %r8,%rax
  405c33:	4d 39 cb             	cmp    %r9,%r11
  405c36:	48 0f 45 c7          	cmovne %rdi,%rax
  405c3a:	48 89 46 50          	mov    %rax,0x50(%rsi)
  405c3e:	48 8b 76 18          	mov    0x18(%rsi),%rsi
  405c42:	48 39 f2             	cmp    %rsi,%rdx
  405c45:	75 d9                	jne    405c20 <master.constprop.6+0x670>
  405c47:	4c 8b 4c 24 20       	mov    0x20(%rsp),%r9
  405c4c:	48 39 d1             	cmp    %rdx,%rcx
  405c4f:	74 36                	je     405c87 <master.constprop.6+0x6d7>
  405c51:	0f 1f 44 00 00       	nopl   0x0(%rax,%rax,1)
  405c56:	66 2e 0f 1f 84 00 00 	nopw   %cs:0x0(%rax,%rax,1)
  405c5d:	00 00 00 
  405c60:	48 8b 41 50          	mov    0x50(%rcx),%rax
  405c64:	48 63 79 08          	movslq 0x8(%rcx),%rdi
  405c68:	48 01 59 58          	add    %rbx,0x58(%rcx)
  405c6c:	49 8d 34 00          	lea    (%r8,%rax,1),%rsi
  405c70:	4c 29 c0             	sub    %r8,%rax
  405c73:	49 39 f9             	cmp    %rdi,%r9
  405c76:	48 0f 44 c6          	cmove  %rsi,%rax
  405c7a:	48 89 41 50          	mov    %rax,0x50(%rcx)
  405c7e:	48 8b 49 18          	mov    0x18(%rcx),%rcx
  405c82:	48 39 ca             	cmp    %rcx,%rdx
  405c85:	75 d9                	jne    405c60 <master.constprop.6+0x6b0>
  405c87:	48 8b 44 24 10       	mov    0x10(%rsp),%rax
  405c8c:	0f b7 5c 24 36       	movzwl 0x36(%rsp),%ebx
  405c91:	66 c7 40 20 00 00    	movw   $0x0,0x20(%rax)
  405c97:	48 8b 44 24 28       	mov    0x28(%rsp),%rax
  405c9c:	66 89 58 20          	mov    %bx,0x20(%rax)
  405ca0:	4d 85 d2             	test   %r10,%r10
  405ca3:	0f 85 22 ff ff ff    	jne    405bcb <master.constprop.6+0x61b>
  405ca9:	48 8b 3d 68 14 20 00 	mov    0x201468(%rip),%rdi        # 607118 <basket_sizes>
  405cb0:	e9 00 fa ff ff       	jmpq   4056b5 <master.constprop.6+0x105>
  405cb5:	90                   	nop
  405cb6:	66 2e 0f 1f 84 00 00 	nopw   %cs:0x0(%rax,%rax,1)
  405cbd:	00 00 00 
  405cc0:	48 29 5e 58          	sub    %rbx,0x58(%rsi)
  405cc4:	48 8b 76 18          	mov    0x18(%rsi),%rsi
  405cc8:	48 39 d6             	cmp    %rdx,%rsi
  405ccb:	75 f3                	jne    405cc0 <master.constprop.6+0x710>
  405ccd:	48 39 d1             	cmp    %rdx,%rcx
  405cd0:	74 b5                	je     405c87 <master.constprop.6+0x6d7>
  405cd2:	0f 1f 40 00          	nopl   0x0(%rax)
  405cd6:	66 2e 0f 1f 84 00 00 	nopw   %cs:0x0(%rax,%rax,1)
  405cdd:	00 00 00 
  405ce0:	48 01 59 58          	add    %rbx,0x58(%rcx)
  405ce4:	48 8b 49 18          	mov    0x18(%rcx),%rcx
  405ce8:	48 39 d1             	cmp    %rdx,%rcx
  405ceb:	75 f3                	jne    405ce0 <master.constprop.6+0x730>
  405ced:	eb 98                	jmp    405c87 <master.constprop.6+0x6d7>
  405cef:	90                   	nop
  405cf0:	4c 89 44 24 08       	mov    %r8,0x8(%rsp)
  405cf5:	48 39 cf             	cmp    %rcx,%rdi
  405cf8:	0f 85 08 fd ff ff    	jne    405a06 <master.constprop.6+0x456>
  405cfe:	4c 89 cf             	mov    %r9,%rdi
  405d01:	4d 89 cb             	mov    %r9,%r11
  405d04:	48 c1 ff 3f          	sar    $0x3f,%rdi
  405d08:	49 31 fb             	xor    %rdi,%r11
  405d0b:	49 29 fb             	sub    %rdi,%r11
  405d0e:	e9 06 fd ff ff       	jmpq   405a19 <master.constprop.6+0x469>
  405d13:	48 8b 5c 24 10       	mov    0x10(%rsp),%rbx
  405d18:	48 ff 05 69 16 20 00 	incq   0x201669(%rip)        # 607388 <net+0x268>
  405d1f:	31 f6                	xor    %esi,%esi
  405d21:	66 83 7b 20 02       	cmpw   $0x2,0x20(%rbx)
  405d26:	40 0f 95 c6          	setne  %sil
  405d2a:	ff c6                	inc    %esi
  405d2c:	66 89 73 20          	mov    %si,0x20(%rbx)
  405d30:	4d 85 c0             	test   %r8,%r8
  405d33:	0f 84 70 ff ff ff    	je     405ca9 <master.constprop.6+0x6f9>
  405d39:	48 39 d0             	cmp    %rdx,%rax
  405d3c:	74 32                	je     405d70 <master.constprop.6+0x7c0>
  405d3e:	66 90                	xchg   %ax,%ax
  405d40:	44 8b 48 08          	mov    0x8(%rax),%r9d
  405d44:	31 f6                	xor    %esi,%esi
  405d46:	45 85 c9             	test   %r9d,%r9d
  405d49:	40 0f 94 c6          	sete   %sil
  405d4d:	48 89 70 50          	mov    %rsi,0x50(%rax)
  405d51:	48 8b 40 18          	mov    0x18(%rax),%rax
  405d55:	48 39 d0             	cmp    %rdx,%rax
  405d58:	75 e6                	jne    405d40 <master.constprop.6+0x790>
  405d5a:	48 39 d1             	cmp    %rdx,%rcx
  405d5d:	0f 84 46 ff ff ff    	je     405ca9 <master.constprop.6+0x6f9>
  405d63:	0f 1f 00             	nopl   (%rax)
  405d66:	66 2e 0f 1f 84 00 00 	nopw   %cs:0x0(%rax,%rax,1)
  405d6d:	00 00 00 
  405d70:	44 8b 41 08          	mov    0x8(%rcx),%r8d
  405d74:	31 c0                	xor    %eax,%eax
  405d76:	45 85 c0             	test   %r8d,%r8d
  405d79:	0f 95 c0             	setne  %al
  405d7c:	48 89 41 50          	mov    %rax,0x50(%rcx)
  405d80:	48 8b 49 18          	mov    0x18(%rcx),%rcx
  405d84:	48 39 d1             	cmp    %rdx,%rcx
  405d87:	75 e7                	jne    405d70 <master.constprop.6+0x7c0>
  405d89:	e9 1b ff ff ff       	jmpq   405ca9 <master.constprop.6+0x6f9>
  405d8e:	48 8b 5c 24 10       	mov    0x10(%rsp),%rbx
  405d93:	48 ff 05 ee 15 20 00 	incq   0x2015ee(%rip)        # 607388 <net+0x268>
  405d9a:	31 c0                	xor    %eax,%eax
  405d9c:	66 83 7b 20 02       	cmpw   $0x2,0x20(%rbx)
  405da1:	0f 95 c0             	setne  %al
  405da4:	ff c0                	inc    %eax
  405da6:	66 89 43 20          	mov    %ax,0x20(%rbx)
  405daa:	e9 fa fe ff ff       	jmpq   405ca9 <master.constprop.6+0x6f9>
  405daf:	45 31 d2             	xor    %r10d,%r10d
  405db2:	e9 54 fe ff ff       	jmpq   405c0b <master.constprop.6+0x65b>
  405db7:	66 0f 1f 84 00 00 00 	nopw   0x0(%rax,%rax,1)
  405dbe:	00 00 

0000000000405dc0 <resize_prob.constprop.14>:
  405dc0:	48 83 ec 08          	sub    $0x8,%rsp
  405dc4:	48 8b 15 1d 15 20 00 	mov    0x20151d(%rip),%rdx        # 6072e8 <net+0x1c8>
  405dcb:	48 8b 05 ee 14 20 00 	mov    0x2014ee(%rip),%rax        # 6072c0 <net+0x1a0>
  405dd2:	48 8b 3d 7f 15 20 00 	mov    0x20157f(%rip),%rdi        # 607358 <net+0x238>
  405dd9:	48 01 15 00 15 20 00 	add    %rdx,0x201500(%rip)        # 6072e0 <net+0x1c0>
  405de0:	48 01 d0             	add    %rdx,%rax
  405de3:	48 8d 34 c0          	lea    (%rax,%rax,8),%rsi
  405de7:	48 89 05 d2 14 20 00 	mov    %rax,0x2014d2(%rip)        # 6072c0 <net+0x1a0>
  405dee:	48 c1 e6 03          	shl    $0x3,%rsi
  405df2:	e8 29 ac ff ff       	callq  400a20 <realloc@plt>
  405df7:	48 85 c0             	test   %rax,%rax
  405dfa:	0f 84 8f 00 00 00    	je     405e8f <resize_prob.constprop.14+0xcf>
  405e00:	48 8b 15 c1 14 20 00 	mov    0x2014c1(%rip),%rdx        # 6072c8 <net+0x1a8>
  405e07:	48 8b 35 3a 15 20 00 	mov    0x20153a(%rip),%rsi        # 607348 <net+0x228>
  405e0e:	48 8b 0d 3b 15 20 00 	mov    0x20153b(%rip),%rcx        # 607350 <net+0x230>
  405e15:	48 8b 3d 3c 15 20 00 	mov    0x20153c(%rip),%rdi        # 607358 <net+0x238>
  405e1c:	48 89 05 35 15 20 00 	mov    %rax,0x201535(%rip)        # 607358 <net+0x238>
  405e23:	48 8d 14 d2          	lea    (%rdx,%rdx,8),%rdx
  405e27:	48 8d 04 d0          	lea    (%rax,%rdx,8),%rax
  405e2b:	48 89 05 2e 15 20 00 	mov    %rax,0x20152e(%rip)        # 607360 <net+0x240>
  405e32:	48 8d 46 68          	lea    0x68(%rsi),%rax
  405e36:	48 39 c8             	cmp    %rcx,%rax
  405e39:	73 2b                	jae    405e66 <resize_prob.constprop.14+0xa6>
  405e3b:	0f 1f 44 00 00       	nopl   0x0(%rax,%rax,1)
  405e40:	48 8b 50 30          	mov    0x30(%rax),%rdx
  405e44:	48 85 d2             	test   %rdx,%rdx
  405e47:	74 14                	je     405e5d <resize_prob.constprop.14+0x9d>
  405e49:	48 3b 70 18          	cmp    0x18(%rax),%rsi
  405e4d:	74 0e                	je     405e5d <resize_prob.constprop.14+0x9d>
  405e4f:	48 29 fa             	sub    %rdi,%rdx
  405e52:	48 03 15 ff 14 20 00 	add    0x2014ff(%rip),%rdx        # 607358 <net+0x238>
  405e59:	48 89 50 30          	mov    %rdx,0x30(%rax)
  405e5d:	48 83 c0 68          	add    $0x68,%rax
  405e61:	48 39 c1             	cmp    %rax,%rcx
  405e64:	77 da                	ja     405e40 <resize_prob.constprop.14+0x80>
  405e66:	48 8b 05 53 14 20 00 	mov    0x201453(%rip),%rax        # 6072c0 <net+0x1a0>
  405e6d:	48 8b 3d f4 14 20 00 	mov    0x2014f4(%rip),%rdi        # 607368 <net+0x248>
  405e74:	48 8d 34 c0          	lea    (%rax,%rax,8),%rsi
  405e78:	48 c1 e6 03          	shl    $0x3,%rsi
  405e7c:	e8 9f ab ff ff       	callq  400a20 <realloc@plt>
  405e81:	48 89 05 e0 14 20 00 	mov    %rax,0x2014e0(%rip)        # 607368 <net+0x248>
  405e88:	31 c0                	xor    %eax,%eax
  405e8a:	48 83 c4 08          	add    $0x8,%rsp
  405e8e:	c3                   	retq   
  405e8f:	be 20 71 60 00       	mov    $0x607120,%esi
  405e94:	bf e8 5f 40 00       	mov    $0x405fe8,%edi
  405e99:	e8 f2 ab ff ff       	callq  400a90 <printf@plt>
  405e9e:	48 8b 3d 2b 12 20 00 	mov    0x20122b(%rip),%rdi        # 6070d0 <stdout@@GLIBC_2.2.5>
  405ea5:	e8 46 ac ff ff       	callq  400af0 <fflush@plt>
  405eaa:	48 c7 c0 ff ff ff ff 	mov    $0xffffffffffffffff,%rax
  405eb1:	eb d7                	jmp    405e8a <resize_prob.constprop.14+0xca>
  405eb3:	0f 1f 00             	nopl   (%rax)
  405eb6:	66 2e 0f 1f 84 00 00 	nopw   %cs:0x0(%rax,%rax,1)
  405ebd:	00 00 00 

0000000000405ec0 <getfree.constprop.3>:
  405ec0:	48 83 ec 08          	sub    $0x8,%rsp
  405ec4:	48 8b 3d 7d 14 20 00 	mov    0x20147d(%rip),%rdi        # 607348 <net+0x228>
  405ecb:	48 85 ff             	test   %rdi,%rdi
  405ece:	74 05                	je     405ed5 <getfree.constprop.3+0x15>
  405ed0:	e8 9b ab ff ff       	callq  400a70 <free@plt>
  405ed5:	48 8b 3d 7c 14 20 00 	mov    0x20147c(%rip),%rdi        # 607358 <net+0x238>
  405edc:	48 85 ff             	test   %rdi,%rdi
  405edf:	74 05                	je     405ee6 <getfree.constprop.3+0x26>
  405ee1:	e8 8a ab ff ff       	callq  400a70 <free@plt>
  405ee6:	48 8b 3d 83 14 20 00 	mov    0x201483(%rip),%rdi        # 607370 <net+0x250>
  405eed:	48 85 ff             	test   %rdi,%rdi
  405ef0:	74 05                	je     405ef7 <getfree.constprop.3+0x37>
  405ef2:	e8 79 ab ff ff       	callq  400a70 <free@plt>
  405ef7:	48 8b 3d 6a 14 20 00 	mov    0x20146a(%rip),%rdi        # 607368 <net+0x248>
  405efe:	48 85 ff             	test   %rdi,%rdi
  405f01:	74 05                	je     405f08 <getfree.constprop.3+0x48>
  405f03:	e8 68 ab ff ff       	callq  400a70 <free@plt>
  405f08:	c5 f8 57 c0          	vxorps %xmm0,%xmm0,%xmm0
  405f0c:	48 c7 05 61 14 20 00 	movq   $0x0,0x201461(%rip)        # 607378 <net+0x258>
  405f13:	00 00 00 00 
  405f17:	31 c0                	xor    %eax,%eax
  405f19:	c5 f8 11 05 27 14 20 	vmovups %xmm0,0x201427(%rip)        # 607348 <net+0x228>
  405f20:	00 
  405f21:	c5 f8 11 05 2f 14 20 	vmovups %xmm0,0x20142f(%rip)        # 607358 <net+0x238>
  405f28:	00 
  405f29:	c5 f8 11 05 37 14 20 	vmovups %xmm0,0x201437(%rip)        # 607368 <net+0x248>
  405f30:	00 
  405f31:	48 83 c4 08          	add    $0x8,%rsp
  405f35:	c3                   	retq   
  405f36:	66 2e 0f 1f 84 00 00 	nopw   %cs:0x0(%rax,%rax,1)
  405f3d:	00 00 00 

0000000000405f40 <__libc_csu_init>:
  405f40:	41 57                	push   %r15
  405f42:	41 89 ff             	mov    %edi,%r15d
  405f45:	41 56                	push   %r14
  405f47:	49 89 f6             	mov    %rsi,%r14
  405f4a:	41 55                	push   %r13
  405f4c:	49 89 d5             	mov    %rdx,%r13
  405f4f:	41 54                	push   %r12
  405f51:	4c 8d 25 98 0e 20 00 	lea    0x200e98(%rip),%r12        # 606df0 <__frame_dummy_init_array_entry>
  405f58:	55                   	push   %rbp
  405f59:	48 8d 2d a0 0e 20 00 	lea    0x200ea0(%rip),%rbp        # 606e00 <__init_array_end>
  405f60:	53                   	push   %rbx
  405f61:	4c 29 e5             	sub    %r12,%rbp
  405f64:	31 db                	xor    %ebx,%ebx
  405f66:	48 c1 fd 03          	sar    $0x3,%rbp
  405f6a:	48 83 ec 08          	sub    $0x8,%rsp
  405f6e:	e8 75 aa ff ff       	callq  4009e8 <_init>
  405f73:	48 85 ed             	test   %rbp,%rbp
  405f76:	74 1e                	je     405f96 <__libc_csu_init+0x56>
  405f78:	0f 1f 84 00 00 00 00 	nopl   0x0(%rax,%rax,1)
  405f7f:	00 
  405f80:	4c 89 ea             	mov    %r13,%rdx
  405f83:	4c 89 f6             	mov    %r14,%rsi
  405f86:	44 89 ff             	mov    %r15d,%edi
  405f89:	41 ff 14 dc          	callq  *(%r12,%rbx,8)
  405f8d:	48 83 c3 01          	add    $0x1,%rbx
  405f91:	48 39 eb             	cmp    %rbp,%rbx
  405f94:	75 ea                	jne    405f80 <__libc_csu_init+0x40>
  405f96:	48 83 c4 08          	add    $0x8,%rsp
  405f9a:	5b                   	pop    %rbx
  405f9b:	5d                   	pop    %rbp
  405f9c:	41 5c                	pop    %r12
  405f9e:	41 5d                	pop    %r13
  405fa0:	41 5e                	pop    %r14
  405fa2:	41 5f                	pop    %r15
  405fa4:	c3                   	retq   
  405fa5:	90                   	nop
  405fa6:	66 2e 0f 1f 84 00 00 	nopw   %cs:0x0(%rax,%rax,1)
  405fad:	00 00 00 

0000000000405fb0 <__libc_csu_fini>:
  405fb0:	f3 c3                	repz retq 

0000000000405fb2 <set_fast_math>:
  405fb2:	55                   	push   %rbp
  405fb3:	48 89 e5             	mov    %rsp,%rbp
  405fb6:	0f ae 5d ec          	stmxcsr -0x14(%rbp)
  405fba:	8b 45 ec             	mov    -0x14(%rbp),%eax
  405fbd:	89 45 fc             	mov    %eax,-0x4(%rbp)
  405fc0:	81 4d fc 40 80 00 00 	orl    $0x8040,-0x4(%rbp)
  405fc7:	8b 45 fc             	mov    -0x4(%rbp),%eax
  405fca:	89 45 ec             	mov    %eax,-0x14(%rbp)
  405fcd:	0f ae 55 ec          	ldmxcsr -0x14(%rbp)
  405fd1:	90                   	nop
  405fd2:	5d                   	pop    %rbp
  405fd3:	c3                   	retq   

Disassembly of section .fini:

0000000000405fd4 <_fini>:
  405fd4:	48 83 ec 08          	sub    $0x8,%rsp
  405fd8:	48 83 c4 08          	add    $0x8,%rsp
  405fdc:	c3                   	retq   
